
Embed_System.elf:     file format elf32-littlenios2
Embed_System.elf
architecture: nios2:r1, flags 0x00000112:
EXEC_P, HAS_SYMS, D_PAGED
start address 0x0400016c

Program Header:
    LOAD off    0x00001020 vaddr 0x09404020 paddr 0x04000000 align 2**12
         filesz 0x0000016c memsz 0x0000016c flags r-x
    LOAD off    0x0000216c vaddr 0x0400016c paddr 0x0400016c align 2**12
         filesz 0x0000fc40 memsz 0x0000fc40 flags r-x
    LOAD off    0x00011dac vaddr 0x0400fdac paddr 0x040109e8 align 2**12
         filesz 0x00000c3c memsz 0x00000c3c flags rw-
    LOAD off    0x00013624 vaddr 0x04011624 paddr 0x04011624 align 2**12
         filesz 0x00000000 memsz 0x000001f4 flags rw-
    LOAD off    0x00013000 vaddr 0x09404000 paddr 0x09404000 align 2**12
         filesz 0x00000020 memsz 0x00000020 flags r-x

Sections:
Idx Name          Size      VMA       LMA       File off  Algn
  0 .entry        00000020  09404000  09404000  00013000  2**5
                  CONTENTS, ALLOC, LOAD, READONLY, CODE
  1 .exceptions   0000016c  09404020  04000000  00001020  2**2
                  CONTENTS, ALLOC, LOAD, READONLY, CODE
  2 .text         0000f578  0400016c  0400016c  0000216c  2**2
                  CONTENTS, ALLOC, LOAD, READONLY, CODE
  3 .rodata       000006c8  0400f6e4  0400f6e4  000116e4  2**2
                  CONTENTS, ALLOC, LOAD, READONLY, DATA
  4 .rwdata       00000c3c  0400fdac  040109e8  00011dac  2**2
                  CONTENTS, ALLOC, LOAD, DATA, SMALL_DATA
  5 .bss          000001f4  04011624  04011624  00013624  2**2
                  ALLOC, SMALL_DATA
  6 .sdram        00000000  04011818  04011818  00013020  2**0
                  CONTENTS
  7 .onchip_flash_0_data 00000000  09200000  09200000  00013020  2**0
                  CONTENTS
  8 .onchip_ram   00000000  0940418c  0940418c  00013020  2**0
                  CONTENTS
  9 .comment      00000023  00000000  00000000  00013020  2**0
                  CONTENTS, READONLY
 10 .debug_aranges 00001018  00000000  00000000  00013048  2**3
                  CONTENTS, READONLY, DEBUGGING
 11 .debug_info   000286a6  00000000  00000000  00014060  2**0
                  CONTENTS, READONLY, DEBUGGING
 12 .debug_abbrev 0000a57f  00000000  00000000  0003c706  2**0
                  CONTENTS, READONLY, DEBUGGING
 13 .debug_line   0000c9eb  00000000  00000000  00046c85  2**0
                  CONTENTS, READONLY, DEBUGGING
 14 .debug_frame  000021a4  00000000  00000000  00053670  2**2
                  CONTENTS, READONLY, DEBUGGING
 15 .debug_str    00004161  00000000  00000000  00055814  2**0
                  CONTENTS, READONLY, DEBUGGING
 16 .debug_loc    0001aa2c  00000000  00000000  00059975  2**0
                  CONTENTS, READONLY, DEBUGGING
 17 .debug_alt_sim_info 00000060  00000000  00000000  000743a4  2**2
                  CONTENTS, READONLY, DEBUGGING
 18 .debug_ranges 00001c40  00000000  00000000  00074408  2**3
                  CONTENTS, READONLY, DEBUGGING
 19 .thread_model 00000003  00000000  00000000  00079a4e  2**0
                  CONTENTS, READONLY
 20 .cpu          0000000c  00000000  00000000  00079a51  2**0
                  CONTENTS, READONLY
 21 .qsys         00000001  00000000  00000000  00079a5d  2**0
                  CONTENTS, READONLY
 22 .simulation_enabled 00000001  00000000  00000000  00079a5e  2**0
                  CONTENTS, READONLY
 23 .sysid_hash   00000004  00000000  00000000  00079a5f  2**0
                  CONTENTS, READONLY
 24 .sysid_base   00000004  00000000  00000000  00079a63  2**0
                  CONTENTS, READONLY
 25 .sysid_time   00000004  00000000  00000000  00079a67  2**0
                  CONTENTS, READONLY
 26 .stderr_dev   00000009  00000000  00000000  00079a6b  2**0
                  CONTENTS, READONLY
 27 .stdin_dev    00000009  00000000  00000000  00079a74  2**0
                  CONTENTS, READONLY
 28 .stdout_dev   00000009  00000000  00000000  00079a7d  2**0
                  CONTENTS, READONLY
 29 .sopc_system_name 00000005  00000000  00000000  00079a86  2**0
                  CONTENTS, READONLY
 30 .quartus_project_dir 0000001a  00000000  00000000  00079a8b  2**0
                  CONTENTS, READONLY
 31 .jdi          0000af1c  00000000  00000000  00079aa5  2**0
                  CONTENTS, READONLY
 32 .sopcinfo     000c4b6a  00000000  00000000  000849c1  2**0
                  CONTENTS, READONLY
SYMBOL TABLE:
09404000 l    d  .entry	00000000 .entry
09404020 l    d  .exceptions	00000000 .exceptions
0400016c l    d  .text	00000000 .text
0400f6e4 l    d  .rodata	00000000 .rodata
0400fdac l    d  .rwdata	00000000 .rwdata
04011624 l    d  .bss	00000000 .bss
04011818 l    d  .sdram	00000000 .sdram
09200000 l    d  .onchip_flash_0_data	00000000 .onchip_flash_0_data
0940418c l    d  .onchip_ram	00000000 .onchip_ram
00000000 l    d  .comment	00000000 .comment
00000000 l    d  .debug_aranges	00000000 .debug_aranges
00000000 l    d  .debug_info	00000000 .debug_info
00000000 l    d  .debug_abbrev	00000000 .debug_abbrev
00000000 l    d  .debug_line	00000000 .debug_line
00000000 l    d  .debug_frame	00000000 .debug_frame
00000000 l    d  .debug_str	00000000 .debug_str
00000000 l    d  .debug_loc	00000000 .debug_loc
00000000 l    d  .debug_alt_sim_info	00000000 .debug_alt_sim_info
00000000 l    d  .debug_ranges	00000000 .debug_ranges
00000000 l    df *ABS*	00000000 ../Embed_System_bsp//obj/HAL/src/crt0.o
040001b4 l       .text	00000000 alt_after_alt_main
00000000 l    df *ABS*	00000000 alt_irq_handler.c
00000000 l    df *ABS*	00000000 alt_instruction_exception_entry.c
00000000 l    df *ABS*	00000000 main.c
00000000 l    df *ABS*	00000000 alarm_util.c
00000000 l    df *ABS*	00000000 delay_wait.c
00000000 l    df *ABS*	00000000 error_loop.c
00000000 l    df *ABS*	00000000 jtag_uart_util.c
00000000 l    df *ABS*	00000000 led_util.c
00000000 l    df *ABS*	00000000 lib2-divmod.c
00000000 l    df *ABS*	00000000 printf.c
00000000 l    df *ABS*	00000000 vfprintf.c
0400faca l     O .rodata	00000010 zeroes.4404
04002c20 l     F .text	000000bc __sbprintf
0400fada l     O .rodata	00000010 blanks.4403
00000000 l    df *ABS*	00000000 wsetup.c
00000000 l    df *ABS*	00000000 dtoa.c
04002e30 l     F .text	00000200 quorem
00000000 l    df *ABS*	00000000 fflush.c
00000000 l    df *ABS*	00000000 findfp.c
04004960 l     F .text	00000008 __fp_unlock
04004974 l     F .text	0000019c __sinit.part.1
04004b10 l     F .text	00000008 __fp_lock
00000000 l    df *ABS*	00000000 mallocr.c
00000000 l    df *ABS*	00000000 fwalk.c
00000000 l    df *ABS*	00000000 impure.c
0400fdac l     O .rwdata	00000424 impure_data
00000000 l    df *ABS*	00000000 locale.c
040101f0 l     O .rwdata	00000020 lc_ctype_charset
040101d0 l     O .rwdata	00000020 lc_message_charset
04010210 l     O .rwdata	00000038 lconv
00000000 l    df *ABS*	00000000 makebuf.c
00000000 l    df *ABS*	00000000 mallocr.c
00000000 l    df *ABS*	00000000 memchr.c
00000000 l    df *ABS*	00000000 memcpy.c
00000000 l    df *ABS*	00000000 memset.c
00000000 l    df *ABS*	00000000 mprec.c
0400fb0c l     O .rodata	0000000c p05.2768
00000000 l    df *ABS*	00000000 s_fpclassify.c
00000000 l    df *ABS*	00000000 sbrkr.c
00000000 l    df *ABS*	00000000 stdio.c
00000000 l    df *ABS*	00000000 strcmp.c
00000000 l    df *ABS*	00000000 strlen.c
00000000 l    df *ABS*	00000000 vfprintf.c
04007428 l     F .text	000000fc __sprint_r.part.0
0400fc40 l     O .rodata	00000010 blanks.4348
0400fc30 l     O .rodata	00000010 zeroes.4349
040089b4 l     F .text	000000bc __sbprintf
00000000 l    df *ABS*	00000000 writer.c
00000000 l    df *ABS*	00000000 closer.c
00000000 l    df *ABS*	00000000 mallocr.c
00000000 l    df *ABS*	00000000 fclose.c
00000000 l    df *ABS*	00000000 fputwc.c
00000000 l    df *ABS*	00000000 fstatr.c
00000000 l    df *ABS*	00000000 fvwrite.c
00000000 l    df *ABS*	00000000 int_errno.c
00000000 l    df *ABS*	00000000 isattyr.c
00000000 l    df *ABS*	00000000 lseekr.c
00000000 l    df *ABS*	00000000 memmove.c
00000000 l    df *ABS*	00000000 readr.c
00000000 l    df *ABS*	00000000 mallocr.c
00000000 l    df *ABS*	00000000 wbuf.c
00000000 l    df *ABS*	00000000 wcrtomb.c
00000000 l    df *ABS*	00000000 wctomb_r.c
00000000 l    df *ABS*	00000000 libgcc2.c
00000000 l    df *ABS*	00000000 libgcc2.c
00000000 l    df *ABS*	00000000 adddf3.c
00000000 l    df *ABS*	00000000 divdf3.c
00000000 l    df *ABS*	00000000 eqdf2.c
00000000 l    df *ABS*	00000000 gedf2.c
00000000 l    df *ABS*	00000000 ledf2.c
00000000 l    df *ABS*	00000000 muldf3.c
00000000 l    df *ABS*	00000000 subdf3.c
00000000 l    df *ABS*	00000000 fixdfsi.c
00000000 l    df *ABS*	00000000 floatsidf.c
00000000 l    df *ABS*	00000000 floatunsidf.c
00000000 l    df *ABS*	00000000 libgcc2.c
00000000 l    df *ABS*	00000000 libgcc2.c
00000000 l    df *ABS*	00000000 alt_alarm_start.c
00000000 l    df *ABS*	00000000 alt_close.c
00000000 l    df *ABS*	00000000 alt_dev.c
0400d174 l     F .text	00000008 alt_dev_null_write
00000000 l    df *ABS*	00000000 alt_errno.c
00000000 l    df *ABS*	00000000 alt_fstat.c
00000000 l    df *ABS*	00000000 alt_getchar.c
00000000 l    df *ABS*	00000000 alt_isatty.c
00000000 l    df *ABS*	00000000 alt_load.c
00000000 l    df *ABS*	00000000 alt_lseek.c
00000000 l    df *ABS*	00000000 alt_main.c
00000000 l    df *ABS*	00000000 alt_malloc_lock.c
00000000 l    df *ABS*	00000000 alt_printf.c
00000000 l    df *ABS*	00000000 alt_putchar.c
00000000 l    df *ABS*	00000000 alt_read.c
00000000 l    df *ABS*	00000000 alt_release_fd.c
00000000 l    df *ABS*	00000000 alt_sbrk.c
040109c0 l     O .rwdata	00000004 heap_end
00000000 l    df *ABS*	00000000 alt_tick.c
00000000 l    df *ABS*	00000000 alt_write.c
00000000 l    df *ABS*	00000000 alt_sys_init.c
04010960 l     O .rwdata	0000002c jtag_uart
04010924 l     O .rwdata	0000003c modular_adc_0
04010824 l     O .rwdata	00000100 onchip_flash_0
040107f8 l     O .rwdata	0000002c accelerometer_spi_0
00000000 l    df *ABS*	00000000 altera_avalon_jtag_uart_fd.c
00000000 l    df *ABS*	00000000 altera_avalon_jtag_uart_read.c
00000000 l    df *ABS*	00000000 altera_avalon_jtag_uart_write.c
00000000 l    df *ABS*	00000000 altera_avalon_timer_sc.c
0400da70 l     F .text	0000003c alt_avalon_timer_sc_irq
00000000 l    df *ABS*	00000000 altera_modular_adc.c
0400dad4 l     F .text	00000064 alt_adc_irq
00000000 l    df *ABS*	00000000 altera_onchip_flash.c
00000000 l    df *ABS*	00000000 altera_up_avalon_accelerometer_spi.c
00000000 l    df *ABS*	00000000 alt_busy_sleep.c
00000000 l    df *ABS*	00000000 alt_dcache_flush.c
00000000 l    df *ABS*	00000000 alt_dcache_flush_all.c
00000000 l    df *ABS*	00000000 alt_dev_llist_insert.c
00000000 l    df *ABS*	00000000 alt_find_dev.c
00000000 l    df *ABS*	00000000 alt_flash_dev.c
00000000 l    df *ABS*	00000000 alt_icache_flush_all.c
00000000 l    df *ABS*	00000000 alt_io_redirect.c
0400eaf0 l     F .text	00000074 alt_open_fd.constprop.0
00000000 l    df *ABS*	00000000 alt_irq_register.c
00000000 l    df *ABS*	00000000 alt_irq_vars.c
00000000 l    df *ABS*	00000000 alt_open.c
00000000 l    df *ABS*	00000000 altera_nios2_gen2_irq.c
00000000 l    df *ABS*	00000000 alt_find_file.c
00000000 l    df *ABS*	00000000 alt_get_fd.c
00000000 l    df *ABS*	00000000 alt_icache_flush.c
00000000 l    df *ABS*	00000000 exit.c
00000000 l    df *ABS*	00000000 getc.c
00000000 l    df *ABS*	00000000 memcmp.c
00000000 l    df *ABS*	00000000 putc.c
00000000 l    df *ABS*	00000000 rget.c
00000000 l    df *ABS*	00000000 __call_atexit.c
00000000 l    df *ABS*	00000000 refill.c
0400f4e0 l     F .text	0000001c lflush
00000000 l    df *ABS*	00000000 alt_exit.c
0401168c g     O .bss	00000004 alt_instruction_exception_handler
04006f38 g     F .text	00000074 _mprec_log10
0400dc44 g     F .text	00000020 adc_stop
04007024 g     F .text	0000008c __any_on
0400940c g     F .text	00000054 _isatty_r
0400fb18 g     O .rodata	00000028 __mprec_tinytens
0400d414 g     F .text	00000050 alt_main
040004dc g     F .text	00000014 my_alarm_callback
04011718 g     O .bss	00000100 alt_irq
04009460 g     F .text	00000060 _lseek_r
040109e8 g       *ABS*	00000000 __flash_rwdata_start
0400bb64 g     F .text	00000088 .hidden __eqdf2
04011818 g       *ABS*	00000000 __alt_heap_start
040009d0 g     F .text	0000003c printf
04009d38 g     F .text	0000009c _wcrtomb_r
04007250 g     F .text	0000005c __sseek
04004cb0 g     F .text	00000010 __sinit
04009be0 g     F .text	00000140 __swbuf_r
040052bc g     F .text	0000007c _setlocale_r
04004b18 g     F .text	00000068 __sfmoreglue
0400d468 g     F .text	00000004 __malloc_unlock
04011648 g     O .bss	00000004 LAST_DELAY
04011650 g     O .bss	00000004 PRINT_STDIO_WRAP_COUNT
040094c0 g     F .text	0000015c memmove
04004c98 g     F .text	00000018 _cleanup
040060b4 g     F .text	000000a8 _Balloc
0400bbec g     F .text	000000dc .hidden __gtdf2
0400edfc g     F .text	00000008 altera_nios2_gen2_irq_init
09404000 g     F .entry	0000001c __reset
0400dd00 g     F .text	00000018 adc_interrupt_disable
0400e7c4 g     F .text	00000058 alt_up_accelerometer_spi_read_x_axis
04000000 g       *ABS*	00000000 __flash_exceptions_start
04008ef4 g     F .text	0000005c _fstat_r
04011670 g     O .bss	00000004 errno
0400f34c g     F .text	00000014 __srget
040071cc g     F .text	00000008 __seofread
0400db70 g     F .text	00000070 altera_modular_adc_init
04011654 g     O .bss	00000001 LED_MASK
04011678 g     O .bss	00000004 alt_argv
0401898c g       *ABS*	00000000 _gp
04011655 g     O .bss	00000001 LED_STATE
0400e70c g     F .text	00000060 alt_onchip_flash_poll_for_status_write_passed
04010650 g     O .rwdata	00000180 alt_fd_list
0400effc g     F .text	00000070 _getc_r
0400f06c g     F .text	00000088 getc
0400ea08 g     F .text	00000078 alt_find_dev
04005e44 g     F .text	00000148 memcpy
09200000 g       *ABS*	00000000 __alt_mem_onchip_flash_0_data
04004968 g     F .text	0000000c _cleanup_r
0400ce50 g     F .text	000000dc .hidden __floatsidf
0400dc8c g     F .text	00000014 adc_set_mode_run_continuously
0400eb64 g     F .text	00000074 alt_io_redirect
0400bcc8 g     F .text	000000f4 .hidden __ltdf2
0400ef50 g     F .text	00000074 alt_exception_cause_generated_bad_addr
040070b0 g     F .text	00000074 __fpclassifyd
04006e94 g     F .text	000000a4 __ratio
04008998 g     F .text	0000001c __vfiprintf_internal
0400d9c8 g     F .text	00000074 altera_avalon_jtag_uart_read
040009a0 g     F .text	00000030 _printf_r
040008e4 g     F .text	00000064 .hidden __udivsi3
0400d200 g     F .text	00000084 isatty
0400e6ac g     F .text	00000060 alt_onchip_flash_poll_for_status_erase_passed
0400fb68 g     O .rodata	000000c8 __mprec_tens
04005338 g     F .text	0000000c __locale_charset
0400ef00 g     F .text	00000050 alt_icache_flush
0401166c g     O .bss	00000004 __malloc_top_pad
040109d4 g     O .rwdata	00000008 altera_onchip_flash_list
04010998 g     O .rwdata	00000004 __mb_cur_max
04005368 g     F .text	0000000c _localeconv_r
04008f50 g     F .text	000004bc __sfvwrite_r
040064c0 g     F .text	0000003c __i2b
04007124 g     F .text	00000054 _sbrk_r
0400961c g     F .text	00000060 _read_r
040109cc g     O .rwdata	00000008 altera_modular_adc_list
0400e944 g     F .text	00000040 alt_dcache_flush
0400de08 g     F .text	00000178 alt_onchip_flash_erase_block
04011624 g     O .bss	00000004 accelerometer
040109a8 g     O .rwdata	00000004 alt_max_fd
04008be8 g     F .text	000000f0 _fclose_r
04004930 g     F .text	00000030 fflush
04011668 g     O .bss	00000004 __malloc_max_sbrked_mem
0400ebd8 g     F .text	000000ac alt_irq_register
0400a9d0 g     F .text	000008ac .hidden __adddf3
04006c3c g     F .text	0000010c __b2d
0400a498 g     F .text	00000538 .hidden __umoddi3
0400d398 g     F .text	0000007c lseek
04010990 g     O .rwdata	00000004 _global_impure_ptr
0400967c g     F .text	00000564 _realloc_r
04011818 g       *ABS*	00000000 __bss_end
0400d1f4 g     F .text	0000000c alt_getchar
0400d760 g     F .text	000000f4 alt_tick
040116b8 g     O .bss	00000018 ALARM_100MS
04009f20 g     F .text	00000578 .hidden __udivdi3
04008e50 g     F .text	00000024 _fputwc_r
0400dd3c g     F .text	00000014 adc_wait_for_interrupt
0400fb40 g     O .rodata	00000028 __mprec_bigtens
040062a4 g     F .text	00000104 __s2b
0400cf2c g     F .text	000000a8 .hidden __floatunsidf
0400697c g     F .text	00000060 __mcmp
04004cd0 g     F .text	00000018 __fp_lock_all
0400d72c g     F .text	00000034 alt_alarm_stop
04011688 g     O .bss	00000004 alt_irq_active
040006f4 g     F .text	00000014 set_delay_mode_100ms
094040fc g     F .exceptions	00000064 alt_irq_handler
040107d0 g     O .rwdata	00000028 alt_dev_null
040116d0 g     O .bss	00000018 ALARM_1MS
0400071c g     F .text	00000014 set_delay_mode_1ms
0400dc74 g     F .text	00000018 adc_set_mode_run_once
0400e984 g     F .text	00000018 alt_dcache_flush_all
040063a8 g     F .text	00000068 __hi0bits
0400cdd0 g     F .text	00000080 .hidden __fixdfsi
040109e8 g       *ABS*	00000000 __ram_rwdata_end
0401164c g     O .bss	00000004 PRINT_STDIO_MASK
040109ac g     O .rwdata	00000008 alt_dev_list
0400d854 g     F .text	000000c4 write
0400f170 g     F .text	000000a0 _putc_r
04000730 g     F .text	00000008 set_delay_mode_none
0400fdac g       *ABS*	00000000 __ram_rodata_end
0400d17c g     F .text	00000078 fstat
0400bcc8 g     F .text	000000f4 .hidden __ledf2
04000738 g     F .text	00000024 error_loop
0400dc64 g     F .text	00000010 adc_start
040066f4 g     F .text	00000140 __pow5mult
0400753c g     F .text	0000145c ___vfiprintf_internal_r
04011660 g     O .bss	00000004 __nlocale_changed
04000948 g     F .text	00000058 .hidden __umodsi3
040001b8 g     F .text	0000003c init_accel
04011818 g       *ABS*	00000000 end
04011628 g     O .bss	00000008 ALARM_250MS_CONTEXT
09404160 g     F .exceptions	0000002c alt_instruction_exception_entry
08000000 g       *ABS*	00000000 __alt_stack_pointer
0400daac g     F .text	00000028 alt_avalon_timer_sc_init
0400cfd4 g     F .text	00000064 .hidden __clzsi2
0400da3c g     F .text	00000034 altera_avalon_jtag_uart_write
04004cc0 g     F .text	00000004 __sfp_lock_acquire
04005d60 g     F .text	000000e4 memchr
04000a0c g     F .text	000021f8 ___vfprintf_internal_r
0400ddc0 g     F .text	00000048 alt_onchip_flash_get_info
04004e24 g     F .text	00000310 _free_r
0400d46c g     F .text	0000017c alt_printf
04005344 g     F .text	00000010 __locale_mb_cur_max
0400f2d8 g     F .text	00000074 __srget_r
0400f360 g     F .text	00000180 __call_exitprocs
0401165c g     O .bss	00000004 __mlocale_changed
0401099c g     O .rwdata	00000004 __malloc_sbrk_base
0400016c g     F .text	0000004c _start
04011684 g     O .bss	00000004 _alt_tick_rate
04006834 g     F .text	00000148 __lshift
04011680 g     O .bss	00000004 _alt_nticks
0400d5f4 g     F .text	000000c8 read
0400d938 g     F .text	00000070 alt_sys_init
0400e774 g     F .text	00000014 alt_up_accelerometer_spi_read_address_register
04011630 g     O .bss	00000008 ALARM_100MS_CONTEXT
040064fc g     F .text	000001f8 __multiply
0400fdac g       *ABS*	00000000 __ram_rwdata_start
0400f6e4 g       *ABS*	00000000 __ram_rodata_start
04011690 g     O .bss	00000028 __malloc_current_mallinfo
04006d48 g     F .text	0000014c __d2b
0400d9a8 g     F .text	00000010 altera_avalon_jtag_uart_read_fd
0400eeb0 g     F .text	00000050 alt_get_fd
040116e8 g     O .bss	00000018 ALARM_250MS
0400e8cc g     F .text	00000078 alt_busy_sleep
0400e81c g     F .text	00000058 alt_up_accelerometer_spi_read_y_axis
04008ad0 g     F .text	00000054 _close_r
04000624 g     F .text	000000bc delay_wait
0400f0f4 g     F .text	0000007c memcmp
04011818 g       *ABS*	00000000 __alt_stack_base
04002cdc g     F .text	00000154 __swsetup_r
0400dcec g     F .text	00000014 adc_interrupt_enable
0400b27c g     F .text	000008e8 .hidden __divdf3
0400dd50 g     F .text	00000070 alt_onchip_flash_read
04004b80 g     F .text	00000118 __sfp
04006fac g     F .text	00000078 __copybits
04010248 g     O .rwdata	00000408 __malloc_av_
04004ccc g     F .text	00000004 __sinit_lock_release
0400bdbc g     F .text	00000718 .hidden __muldf3
04007178 g     F .text	00000054 __sread
0400ee04 g     F .text	000000ac alt_find_file
0400e99c g     F .text	0000006c alt_dev_llist_insert
0400d464 g     F .text	00000004 __malloc_lock
0400d6e0 g     F .text	0000004c sbrk
040048d4 g     F .text	0000005c _fflush_r
04008b24 g     F .text	000000c4 _calloc_r
040109dc g     O .rwdata	00000008 alt_flash_dev_list
04011624 g       *ABS*	00000000 __bss_start
04005f8c g     F .text	00000128 memset
040001f4 g     F .text	000002e8 main
04011674 g     O .bss	00000004 alt_envp
04011664 g     O .bss	00000004 __malloc_max_total_mem
0400d9b8 g     F .text	00000010 altera_avalon_jtag_uart_write_fd
04009d20 g     F .text	00000018 __swbuf
0400db38 g     F .text	00000038 alt_adc_word_read
04011638 g     O .bss	00000008 ALARM_10MS_CONTEXT
040072ac g     F .text	00000008 __sclose
08000000 g       *ABS*	00000000 __alt_heap_limit
04008cd8 g     F .text	00000014 fclose
04003030 g     F .text	00001688 _dtoa_r
04005554 g     F .text	0000080c _malloc_r
04009e94 g     F .text	00000030 __ascii_wctomb
040109bc g     O .rwdata	00000004 alt_errno
0400e650 g     F .text	0000005c alt_onchip_flash_poll_for_status_to_go_idle
04005134 g     F .text	000000c4 _fwalk
0400f210 g     F .text	000000c8 putc
040007ec g     F .text	00000084 .hidden __divsi3
04004d00 g     F .text	00000124 _malloc_trim_r
0400e3ac g     F .text	000002a4 altera_onchip_flash_init
040072b4 g     F .text	000000dc strcmp
0400f6e4 g       *ABS*	00000000 __flash_rodata_start
0400bb64 g     F .text	00000088 .hidden __nedf2
0400d918 g     F .text	00000020 alt_irq_init
0400d6bc g     F .text	00000024 alt_release_fd
0400fc50 g     O .rodata	00000100 .hidden __clz_tab
04011658 g     O .bss	00000004 _PathLocale
04008a70 g     F .text	00000060 _write_r
04005374 g     F .text	00000018 setlocale
040007b8 g     F .text	00000034 update_led
04010994 g     O .rwdata	00000004 _impure_ptr
0401167c g     O .bss	00000004 alt_argc
040046b8 g     F .text	0000021c __sflush_r
04005360 g     F .text	00000008 __locale_cjk_lang
0400f4fc g     F .text	000001d4 __srefill_r
040006e0 g     F .text	00000014 set_delay_mode_250ms
09404020 g       .exceptions	00000000 alt_irq_entry
04006bd8 g     F .text	00000064 __ulp
04004ce8 g     F .text	00000018 __fp_unlock_all
040109b4 g     O .rwdata	00000008 alt_fs_list
0400df80 g     F .text	00000220 alt_onchip_flash_write_block
09404020 g       *ABS*	00000000 __ram_exceptions_start
0400e76c g     F .text	00000008 alt_up_accelerometer_spi_open_dev
0400538c g     F .text	0000000c localeconv
0400075c g     F .text	0000005c print_binary_count_stdio
040109e8 g       *ABS*	00000000 _edata
0400e1a0 g     F .text	0000020c alt_onchip_flash_write
04011818 g       *ABS*	00000000 _end
0400ea80 g     F .text	00000050 alt_flash_open_dev
04011700 g     O .bss	00000018 ALARM_10MS
0400dd2c g     F .text	00000010 adc_interrupt_asserted
04008cec g     F .text	00000164 __fputwc
0940418c g       *ABS*	00000000 __ram_exceptions_end
040071d4 g     F .text	0000007c __swrite
040109a0 g     O .rwdata	00000004 __malloc_trim_threshold
0400dd18 g     F .text	00000014 adc_clear_interrupt_status
04005354 g     F .text	0000000c __locale_msgcharset
0400efc4 g     F .text	00000038 exit
040051f8 g     F .text	000000c4 _fwalk_reent
040069dc g     F .text	000001fc __mdiff
0400ead0 g     F .text	00000014 alt_flash_close_dev
04000870 g     F .text	00000074 .hidden __modsi3
0400e874 g     F .text	00000058 alt_up_accelerometer_spi_read_z_axis
08000000 g       *ABS*	00000000 __alt_data_end
09404020 g     F .exceptions	00000000 alt_exception
04004cc4 g     F .text	00000004 __sfp_lock_release
04000000 g       *ABS*	00000000 __alt_mem_sdram
09404000 g       *ABS*	00000000 __alt_mem_onchip_ram
0400dc3c g     F .text	00000008 altera_modular_adc_open
0400f6d0 g     F .text	00000014 _exit
0400d038 g     F .text	00000080 alt_alarm_start
0400e788 g     F .text	00000020 alt_up_accelerometer_spi_read
0400e7a8 g     F .text	0000001c alt_up_accelerometer_spi_write
04005398 g     F .text	000001bc __smakebuf_r
04007390 g     F .text	00000098 strlen
0400ec84 g     F .text	00000178 open
040004f0 g     F .text	00000134 alarm_init
0400bbec g     F .text	000000dc .hidden __gedf2
0400d5e8 g     F .text	0000000c alt_putchar
0400dca0 g     F .text	0000004c adc_recalibrate
040109a4 g     O .rwdata	00000004 __wctomb
04011640 g     O .bss	00000008 ALARM_1MS_CONTEXT
04007524 g     F .text	00000018 __sprint_r
0400eae4 g     F .text	0000000c alt_icache_flush_all
040109e4 g     O .rwdata	00000004 alt_priority_mask
04002c04 g     F .text	0000001c __vfprintf_internal
04009ec4 g     F .text	0000005c _wctomb_r
0400c4d4 g     F .text	000008fc .hidden __subdf3
04000708 g     F .text	00000014 set_delay_mode_10ms
0401098c g     O .rwdata	00000001 DELAY_MODE
04006410 g     F .text	000000b0 __lo0bits
040109c4 g     O .rwdata	00000008 alt_alarm_list
04009dd4 g     F .text	000000c0 wcrtomb
0400d0b8 g     F .text	000000bc close
0400d284 g     F .text	00000114 alt_load
04008e74 g     F .text	00000080 fputwc
0400dbe0 g     F .text	0000005c alt_adc_register_callback
04004cc8 g     F .text	00000004 __sinit_lock_acquire
04006184 g     F .text	00000120 __multadd
0400615c g     F .text	00000028 _Bfree



Disassembly of section .entry:

09404000 <__reset>:
#if NIOS2_ICACHE_SIZE > 0 && defined(ALT_ALLOW_CODE_AT_RESET) && (!defined(ALT_SIM_OPTIMIZE) || defined(NIOS2_ECC_PRESENT))
    /* Assume the instruction cache size is always a power of two. */
#if NIOS2_ICACHE_SIZE > 0x8000
    movhi r2, %hi(NIOS2_ICACHE_SIZE)
#else
    movui r2, NIOS2_ICACHE_SIZE
 9404000:	00820014 	movui	r2,2048
#endif

0:
    initi r2
 9404004:	1001483a 	initi	r2
    addi r2, r2, -NIOS2_ICACHE_LINE_SIZE
 9404008:	10bff804 	addi	r2,r2,-32
    bgt r2, zero, 0b
 940400c:	00bffd16 	blt	zero,r2,9404004 <__ram_exceptions_end+0xfffffe78>
 * Jump to the _start entry point in the .text section if reset code
 * is allowed or if optimizing for RTL simulation.
 */
#if defined(ALT_ALLOW_CODE_AT_RESET) || defined(ALT_SIM_OPTIMIZE)
    /* Jump to the _start entry point in the .text section. */
    movhi r1, %hi(_start)
 9404010:	00410034 	movhi	at,1024
    ori r1, r1, %lo(_start)
 9404014:	08405b14 	ori	at,at,364
    jmp r1
 9404018:	0800683a 	jmp	at
 940401c:	00000000 	call	0 <__alt_mem_sdram-0x4000000>

Disassembly of section .exceptions:

09404020 <alt_exception>:

#else /* ALT_EXCEPTION_STACK disabled */
        /* 
         * Reserve space on normal stack for registers about to be pushed.
         */
        addi  sp, sp, -76
 9404020:	deffed04 	addi	sp,sp,-76
         * documentation for details).
         *
         * Leave a gap in the stack frame at 4(sp) for the muldiv handler to
         * store zero into.
         */
        stw   ra,  0(sp)
 9404024:	dfc00015 	stw	ra,0(sp)
        stw   r1,   8(sp)
 9404028:	d8400215 	stw	at,8(sp)
        stw   r2,  12(sp)
 940402c:	d8800315 	stw	r2,12(sp)
        stw   r3,  16(sp)
 9404030:	d8c00415 	stw	r3,16(sp)
        stw   r4,  20(sp)
 9404034:	d9000515 	stw	r4,20(sp)
        stw   r5,  24(sp)
 9404038:	d9400615 	stw	r5,24(sp)
        stw   r6,  28(sp)
 940403c:	d9800715 	stw	r6,28(sp)
        stw   r7,  32(sp)
 9404040:	d9c00815 	stw	r7,32(sp)
        rdctl r5, estatus   /* Read early to avoid usage stall */
 9404044:	000b307a 	rdctl	r5,estatus
        stw   r8,  36(sp)
 9404048:	da000915 	stw	r8,36(sp)
        stw   r9,  40(sp)
 940404c:	da400a15 	stw	r9,40(sp)
        stw   r10, 44(sp)
 9404050:	da800b15 	stw	r10,44(sp)
        stw   r11, 48(sp)
 9404054:	dac00c15 	stw	r11,48(sp)
        stw   r12, 52(sp)
 9404058:	db000d15 	stw	r12,52(sp)
        stw   r13, 56(sp)
 940405c:	db400e15 	stw	r13,56(sp)
        stw   r14, 60(sp)
 9404060:	db800f15 	stw	r14,60(sp)
        stw   r15, 64(sp)
 9404064:	dbc01015 	stw	r15,64(sp)
        /*
         * ea-4 contains the address of the instruction being executed
         * when the exception occured. For interrupt exceptions, we will
         * will be re-issue the isntruction. Store it in 72(sp)
         */
        stw   r5,  68(sp)  /* estatus */
 9404068:	d9401115 	stw	r5,68(sp)
        addi  r15, ea, -4  /* instruction that caused exception */
 940406c:	ebffff04 	addi	r15,ea,-4
        stw   r15,  72(sp)
 9404070:	dbc01215 	stw	r15,72(sp)
#else
        /*
         * Test to see if the exception was a software exception or caused 
         * by an external interrupt, and vector accordingly.
         */
        rdctl r4, ipending
 9404074:	0009313a 	rdctl	r4,ipending
        andi  r2, r5, 1
 9404078:	2880004c 	andi	r2,r5,1
        beq   r2, zero, .Lnot_irq
 940407c:	10000326 	beq	r2,zero,940408c <alt_exception+0x6c>
        beq   r4, zero, .Lnot_irq
 9404080:	20000226 	beq	r4,zero,940408c <alt_exception+0x6c>
        /*
         * Now that all necessary registers have been preserved, call 
         * alt_irq_handler() to process the interrupts.
         */

        call alt_irq_handler
 9404084:	94040fc0 	call	94040fc <alt_irq_handler>

        .section .exceptions.irqreturn, "xa"

        br    .Lexception_exit
 9404088:	00000706 	br	94040a8 <alt_exception+0x88>
         * upon completion, so we write ea (address of instruction *after*
         * the one where the exception occured) into 72(sp). The actual
         * instruction that caused the exception is written in r2, which these
         * handlers will utilize.
         */
        stw ea, 72(sp) /* EA is PC+4 so will skip over instruction causing exception */
 940408c:	df401215 	stw	ea,72(sp)
.Lunknown_16bit:
        addi.n r4, r4, 2 /* Need PC+2 to skip over instruction causing exception */
        stw r4, 72(sp)

#else /* CDX is not Enabled and all instructions are 32bits */
        ldw r2, -4(ea) /* Instruction value that caused exception */
 9404090:	e8bfff17 	ldw	r2,-4(ea)
         * debugger is present) or go into an infinite loop since the
         * handling behavior is undefined; in that case we will not return here.
         */

        /* Load exception-causing address as first argument (r4) */
        addi   r4, ea, -4
 9404094:	e93fff04 	addi	r4,ea,-4

        /* Call the instruction-exception entry */
        call   alt_instruction_exception_entry
 9404098:	94041600 	call	9404160 <alt_instruction_exception_entry>
         * instruction
         *
         * Return code was 0: Skip. The instruction after the exception is
         * already stored in 72(sp).
         */
        bne   r2, r0, .Lexception_exit
 940409c:	1000021e 	bne	r2,zero,94040a8 <alt_exception+0x88>

        /*
         * Otherwise, modify 72(sp) to re-issue the instruction that caused the
         * exception.
         */
        addi  r15, ea, -4  /* instruction that caused exception */
 94040a0:	ebffff04 	addi	r15,ea,-4
        stw   r15,  72(sp)
 94040a4:	dbc01215 	stw	r15,72(sp)
        /* 
         * Restore the saved registers, so that all general purpose registers 
         * have been restored to their state at the time the interrupt occured.
         */

        ldw   r5,  68(sp)
 94040a8:	d9401117 	ldw	r5,68(sp)
        ldw   ea,  72(sp)  /* This becomes the PC once eret is executed */
 94040ac:	df401217 	ldw	ea,72(sp)
        ldw   ra,   0(sp)
 94040b0:	dfc00017 	ldw	ra,0(sp)

        wrctl estatus, r5
 94040b4:	2801707a 	wrctl	estatus,r5

        ldw   r1,   8(sp)
 94040b8:	d8400217 	ldw	at,8(sp)
        ldw   r2,  12(sp)
 94040bc:	d8800317 	ldw	r2,12(sp)
        ldw   r3,  16(sp)
 94040c0:	d8c00417 	ldw	r3,16(sp)
        ldw   r4,  20(sp)
 94040c4:	d9000517 	ldw	r4,20(sp)
        ldw   r5,  24(sp)
 94040c8:	d9400617 	ldw	r5,24(sp)
        ldw   r6,  28(sp)
 94040cc:	d9800717 	ldw	r6,28(sp)
        ldw   r7,  32(sp)
 94040d0:	d9c00817 	ldw	r7,32(sp)

#if defined(ALT_EXCEPTION_STACK) && defined(ALT_STACK_CHECK)
        ldw   et, %gprel(alt_exception_old_stack_limit)(gp)
#endif

        ldw   r8,  36(sp)
 94040d4:	da000917 	ldw	r8,36(sp)
        ldw   r9,  40(sp)
 94040d8:	da400a17 	ldw	r9,40(sp)
        ldw   r10, 44(sp)
 94040dc:	da800b17 	ldw	r10,44(sp)
        ldw   r11, 48(sp)
 94040e0:	dac00c17 	ldw	r11,48(sp)
        ldw   r12, 52(sp)
 94040e4:	db000d17 	ldw	r12,52(sp)
        ldw   r13, 56(sp)
 94040e8:	db400e17 	ldw	r13,56(sp)
        ldw   r14, 60(sp)
 94040ec:	db800f17 	ldw	r14,60(sp)
        ldw   r15, 64(sp)
 94040f0:	dbc01017 	ldw	r15,64(sp)
        stw   et, %gprel(alt_stack_limit_value)(gp)
        stw   zero, %gprel(alt_exception_old_stack_limit)(gp)
#endif /* ALT_STACK_CHECK */
        ldw   sp,  76(sp)
#else /* ALT_EXCEPTION_STACK disabled */
        addi  sp, sp, 76
 94040f4:	dec01304 	addi	sp,sp,76

        /*
         * Return to the interrupted instruction.
         */

        eret
 94040f8:	ef80083a 	eret

094040fc <alt_irq_handler>:
 * instruction is present if the macro ALT_CI_INTERRUPT_VECTOR defined.
 */

void alt_irq_handler (void) __attribute__ ((section (".exceptions")));
void alt_irq_handler (void)
{
 94040fc:	defffe04 	addi	sp,sp,-8
 9404100:	dfc00115 	stw	ra,4(sp)
 9404104:	dc000015 	stw	r16,0(sp)
#ifndef NIOS2_EIC_PRESENT
static ALT_INLINE alt_u32 ALT_ALWAYS_INLINE alt_irq_pending (void)
{
  alt_u32 active;

  NIOS2_READ_IPENDING (active);
 9404108:	0009313a 	rdctl	r4,ipending
 940410c:	04010074 	movhi	r16,1025
 9404110:	8405c604 	addi	r16,r16,5912
     * called to clear the interrupt condition.
     */

    do
    {
      if (active & mask)
 9404114:	2080004c 	andi	r2,r4,1

  active = alt_irq_pending ();

  do
  {
    i = 0;
 9404118:	000b883a 	mov	r5,zero
     * called to clear the interrupt condition.
     */

    do
    {
      if (active & mask)
 940411c:	1000051e 	bne	r2,zero,9404134 <alt_irq_handler+0x38>
 9404120:	00800044 	movi	r2,1
#else
        alt_irq[i].handler(alt_irq[i].context, i); 
#endif
        break;
      }
      mask <<= 1;
 9404124:	1085883a 	add	r2,r2,r2
     * called to clear the interrupt condition.
     */

    do
    {
      if (active & mask)
 9404128:	2086703a 	and	r3,r4,r2
        alt_irq[i].handler(alt_irq[i].context, i); 
#endif
        break;
      }
      mask <<= 1;
      i++;
 940412c:	29400044 	addi	r5,r5,1
     * called to clear the interrupt condition.
     */

    do
    {
      if (active & mask)
 9404130:	183ffc26 	beq	r3,zero,9404124 <__ram_exceptions_end+0xffffff98>
      { 
#ifdef ALT_ENHANCED_INTERRUPT_API_PRESENT
        alt_irq[i].handler(alt_irq[i].context); 
#else
        alt_irq[i].handler(alt_irq[i].context, i); 
 9404134:	280490fa 	slli	r2,r5,3
 9404138:	8085883a 	add	r2,r16,r2
 940413c:	10c00017 	ldw	r3,0(r2)
 9404140:	11000117 	ldw	r4,4(r2)
 9404144:	183ee83a 	callr	r3
 9404148:	0009313a 	rdctl	r4,ipending

    } while (1);

    active = alt_irq_pending ();
    
  } while (active);
 940414c:	203ff11e 	bne	r4,zero,9404114 <__ram_exceptions_end+0xffffff88>
  /*
   * Notify the operating system that interrupt processing is complete.
   */ 

  ALT_OS_INT_EXIT();
}
 9404150:	dfc00117 	ldw	ra,4(sp)
 9404154:	dc000017 	ldw	r16,0(sp)
 9404158:	dec00204 	addi	sp,sp,8
 940415c:	f800283a 	ret

09404160 <alt_instruction_exception_entry>:
 * that handler if it has been registered. Absent a handler, it will
 * break break or hang as discussed below.
 */
int 
alt_instruction_exception_entry (alt_u32 exception_pc)
{
 9404160:	200b883a 	mov	r5,r4
 * NIOS2_EXCEPTION_CAUSE_NOT_PRESENT. Your handling routine should
 * check the validity of the cause argument before proceeding.
 */
#ifdef NIOS2_HAS_EXTRA_EXCEPTION_INFO
  /* Get exception cause & "badaddr" */
  NIOS2_READ_EXCEPTION(cause);
 9404164:	000931fa 	rdctl	r4,exception
  cause = ( (cause & NIOS2_EXCEPTION_REG_CAUSE_MASK) >>
              NIOS2_EXCEPTION_REG_CAUSE_OFST );

  NIOS2_READ_BADADDR(badaddr);
 9404168:	000d333a 	rdctl	r6,badaddr
#else
  cause = NIOS2_EXCEPTION_CAUSE_NOT_PRESENT;
  badaddr = 0;
#endif /* NIOS2_HAS_EXTRA_EXCEPTION_INFO */

  if(alt_instruction_exception_handler) {
 940416c:	d0a34017 	ldw	r2,-29440(gp)
 9404170:	10000326 	beq	r2,zero,9404180 <alt_instruction_exception_entry+0x20>
 * check the validity of the cause argument before proceeding.
 */
#ifdef NIOS2_HAS_EXTRA_EXCEPTION_INFO
  /* Get exception cause & "badaddr" */
  NIOS2_READ_EXCEPTION(cause);
  cause = ( (cause & NIOS2_EXCEPTION_REG_CAUSE_MASK) >>
 9404174:	21001f0c 	andi	r4,r4,124
     * Call handler. Its return value indicates whether the exception-causing
     * instruction should be re-issued. The code that called us,
     * alt_eceptions_entry.S, will look at this value and adjust the ea
     * register as necessary
     */
    return alt_instruction_exception_handler(cause, exception_pc, badaddr);
 9404178:	2008d0ba 	srli	r4,r4,2
 940417c:	1000683a 	jmp	r2
   *    (a peripheral which negates its interrupt output before its
   *    interrupt handler has been executed will cause spurious interrupts)
   */
  else {
#ifdef NIOS2_HAS_DEBUG_STUB
    NIOS2_BREAK();
 9404180:	003da03a 	break	0
#endif /* NIOS2_HAS_DEBUG_STUB */
  }

  /* We should not get here. Remove compiler warning. */
  return NIOS2_EXCEPTION_RETURN_REISSUE_INST;
}
 9404184:	0005883a 	mov	r2,zero
 9404188:	f800283a 	ret

Disassembly of section .text:

0400016c <_start>:

    /* Assume the data cache size is always a power of two. */
#if NIOS2_DCACHE_SIZE > 0x8000
    movhi r2, %hi(NIOS2_DCACHE_SIZE)
#else
    movui r2, NIOS2_DCACHE_SIZE
 400016c:	00820014 	movui	r2,2048
#endif

0:
    initd 0(r2)
 4000170:	10000033 	initd	0(r2)
#ifdef NIOS2_ECC_PRESENT
    addi r2, r2, -4
#else
    addi r2, r2, -NIOS2_DCACHE_LINE_SIZE
 4000174:	10bff804 	addi	r2,r2,-32
#endif
    bgt r2, zero, 0b
 4000178:	00bffd16 	blt	zero,r2,4000170 <__ram_exceptions_end+0xfabfbfe4>

    /*
     * Now that the caches are initialized, set up the stack pointer and global pointer.
     * The values provided by the linker are assumed to be correctly aligned.
     */
    movhi sp, %hi(__alt_stack_pointer)
 400017c:	06c20034 	movhi	sp,2048
    ori sp, sp, %lo(__alt_stack_pointer)
 4000180:	dec00014 	ori	sp,sp,0
    movhi gp, %hi(_gp)
 4000184:	06810074 	movhi	gp,1025
    ori gp, gp, %lo(_gp)
 4000188:	d6a26314 	ori	gp,gp,35212
 */
#ifndef ALT_SIM_OPTIMIZE
    /* Log that the BSS is about to be cleared. */
    ALT_LOG_PUTS(alt_log_msg_bss)

    movhi r2, %hi(__bss_start)
 400018c:	00810074 	movhi	r2,1025
    ori r2, r2, %lo(__bss_start)
 4000190:	10858914 	ori	r2,r2,5668

    movhi r3, %hi(__bss_end)
 4000194:	00c10074 	movhi	r3,1025
    ori r3, r3, %lo(__bss_end)
 4000198:	18c60614 	ori	r3,r3,6168

    beq r2, r3, 1f
 400019c:	10c00326 	beq	r2,r3,40001ac <_start+0x40>

0:
    stw zero, (r2)
 40001a0:	10000015 	stw	zero,0(r2)
    addi r2, r2, 4
 40001a4:	10800104 	addi	r2,r2,4
    bltu r2, r3, 0b
 40001a8:	10fffd36 	bltu	r2,r3,40001a0 <__ram_exceptions_end+0xfabfc014>
     * section aren't defined until alt_load() has been called).
     */
    mov   et, zero
#endif

    call alt_load
 40001ac:	400d2840 	call	400d284 <alt_load>

    /* Log that alt_main is about to be called. */
    ALT_LOG_PUTS(alt_log_msg_alt_main)

    /* Call the C entry point. It should never return. */
    call alt_main
 40001b0:	400d4140 	call	400d414 <alt_main>

040001b4 <alt_after_alt_main>:

    /* Wait in infinite loop in case alt_main does return. */
alt_after_alt_main:
    br alt_after_alt_main
 40001b4:	003fff06 	br	40001b4 <__ram_exceptions_end+0xfabfc028>

040001b8 <init_accel>:
//initialize accelerometer value variable
alt_up_accelerometer_spi_dev * accelerometer;

//initialize accelerometer
void init_accel() {
    accelerometer = alt_up_accelerometer_spi_open_dev("/dev/accelerometer_spi_0");
 40001b8:	01010074 	movhi	r4,1025

//initialize accelerometer value variable
alt_up_accelerometer_spi_dev * accelerometer;

//initialize accelerometer
void init_accel() {
 40001bc:	deffff04 	addi	sp,sp,-4
    accelerometer = alt_up_accelerometer_spi_open_dev("/dev/accelerometer_spi_0");
 40001c0:	213db904 	addi	r4,r4,-2332

//initialize accelerometer value variable
alt_up_accelerometer_spi_dev * accelerometer;

//initialize accelerometer
void init_accel() {
 40001c4:	dfc00015 	stw	ra,0(sp)
    accelerometer = alt_up_accelerometer_spi_open_dev("/dev/accelerometer_spi_0");
 40001c8:	400e76c0 	call	400e76c <alt_up_accelerometer_spi_open_dev>
 40001cc:	d0a32615 	stw	r2,-29544(gp)
    if (accelerometer != NULL) {
 40001d0:	10000526 	beq	r2,zero,40001e8 <init_accel+0x30>
        alt_printf("Accelerometer active!\n ");
 40001d4:	01010074 	movhi	r4,1025
 40001d8:	213dc004 	addi	r4,r4,-2304
    }
}
 40001dc:	dfc00017 	ldw	ra,0(sp)
 40001e0:	dec00104 	addi	sp,sp,4

//initialize accelerometer
void init_accel() {
    accelerometer = alt_up_accelerometer_spi_open_dev("/dev/accelerometer_spi_0");
    if (accelerometer != NULL) {
        alt_printf("Accelerometer active!\n ");
 40001e4:	400d46c1 	jmpi	400d46c <alt_printf>
    }
}
 40001e8:	dfc00017 	ldw	ra,0(sp)
 40001ec:	dec00104 	addi	sp,sp,4
 40001f0:	f800283a 	ret

040001f4 <main>:
    char input;
    int dir;
    alt_u32 xAccel = 0;
    alt_u8 mode = 'b'; // Default mode is binary counter

    alt_printf("\nled_control program starting...\n\n");
 40001f4:	01010074 	movhi	r4,1025
    if (accelerometer != NULL) {
        alt_printf("Accelerometer active!\n ");
    }
}

int main(void) {
 40001f8:	defff804 	addi	sp,sp,-32
    char input;
    int dir;
    alt_u32 xAccel = 0;
    alt_u8 mode = 'b'; // Default mode is binary counter

    alt_printf("\nled_control program starting...\n\n");
 40001fc:	213dc604 	addi	r4,r4,-2280
    if (accelerometer != NULL) {
        alt_printf("Accelerometer active!\n ");
    }
}

int main(void) {
 4000200:	dfc00715 	stw	ra,28(sp)
 4000204:	dc800315 	stw	r18,12(sp)
 4000208:	dd400615 	stw	r21,24(sp)
 400020c:	dd000515 	stw	r20,20(sp)
 4000210:	dcc00415 	stw	r19,16(sp)
 4000214:	dc400215 	stw	r17,8(sp)
 4000218:	dc000115 	stw	r16,4(sp)
    alt_u8 binary_count;
    char input;
    int dir;
    alt_u32 xAccel = 0;
 400021c:	d8000015 	stw	zero,0(sp)
    alt_u8 mode = 'b'; // Default mode is binary counter

    alt_printf("\nled_control program starting...\n\n");
 4000220:	400d46c0 	call	400d46c <alt_printf>
    alt_printf("CONGRATULATIONS!  You have successfully compiled a Nios II project!\n");
 4000224:	01010074 	movhi	r4,1025
 4000228:	213dcf04 	addi	r4,r4,-2244
int main(void) {
    alt_u8 binary_count;
    char input;
    int dir;
    alt_u32 xAccel = 0;
    alt_u8 mode = 'b'; // Default mode is binary counter
 400022c:	04801884 	movi	r18,98

    alt_printf("\nled_control program starting...\n\n");
    alt_printf("CONGRATULATIONS!  You have successfully compiled a Nios II project!\n");
 4000230:	400d46c0 	call	400d46c <alt_printf>

    alarm_init();
 4000234:	40004f00 	call	40004f0 <alarm_init>


    while (1) {
        alt_printf("\nPress 'a' for accelerometer or 'b' for binary counter\n");
 4000238:	01010074 	movhi	r4,1025
 400023c:	213de104 	addi	r4,r4,-2172
 4000240:	400d46c0 	call	400d46c <alt_printf>
        input = alt_getchar();
 4000244:	400d1f40 	call	400d1f4 <alt_getchar>
 4000248:	1021883a 	mov	r16,r2
        alt_getchar();
        alt_printf("You selected: '%c'\n", input);
 400024c:	84003fcc 	andi	r16,r16,255


    while (1) {
        alt_printf("\nPress 'a' for accelerometer or 'b' for binary counter\n");
        input = alt_getchar();
        alt_getchar();
 4000250:	400d1f40 	call	400d1f4 <alt_getchar>
        alt_printf("You selected: '%c'\n", input);
 4000254:	8400201c 	xori	r16,r16,128
 4000258:	843fe004 	addi	r16,r16,-128
 400025c:	01010074 	movhi	r4,1025

        if (input == 'a') {
 4000260:	04401844 	movi	r17,97

    while (1) {
        alt_printf("\nPress 'a' for accelerometer or 'b' for binary counter\n");
        input = alt_getchar();
        alt_getchar();
        alt_printf("You selected: '%c'\n", input);
 4000264:	213def04 	addi	r4,r4,-2116
 4000268:	800b883a 	mov	r5,r16
 400026c:	400d46c0 	call	400d46c <alt_printf>

        if (input == 'a') {
 4000270:	84407226 	beq	r16,r17,400043c <main+0x248>
            mode = 'a'; // Switch to accelerometer mode
            alt_printf("Switched to accelerometer mode\n");
            init_accel();
        } else if (input == 'b') {
 4000274:	00801884 	movi	r2,98
 4000278:	80802126 	beq	r16,r2,4000300 <main+0x10c>
            mode = 'b'; // Switch to binary counter mode
            alt_printf("Switched to binary counter mode\n");
        } else {
            alt_printf("INVALID ENTRY\n");
 400027c:	01010074 	movhi	r4,1025
 4000280:	213e0504 	addi	r4,r4,-2028
 4000284:	400d46c0 	call	400d46c <alt_printf>
        }

        if (mode == 'a') {
 4000288:	90803fcc 	andi	r2,r18,255
 400028c:	14401f1e 	bne	r2,r17,400030c <main+0x118>
            // Accelerometer mode
            alt_up_accelerometer_spi_read_x_axis(accelerometer, (alt_32*)&xAccel);
 4000290:	d1232617 	ldw	r4,-29544(gp)
 4000294:	d80b883a 	mov	r5,sp

            alt_u8 raw_xval = (alt_u8)(xAccel % 255);
            alt_u8 xval = ((7 * raw_xval) / 255);

            alt_u8 Led_Val = 0x00;
 4000298:	0021883a 	mov	r16,zero
            alt_printf("INVALID ENTRY\n");
        }

        if (mode == 'a') {
            // Accelerometer mode
            alt_up_accelerometer_spi_read_x_axis(accelerometer, (alt_32*)&xAccel);
 400029c:	400e7c40 	call	400e7c4 <alt_up_accelerometer_spi_read_x_axis>

            alt_u8 raw_xval = (alt_u8)(xAccel % 255);
            alt_u8 xval = ((7 * raw_xval) / 255);
 40002a0:	d9000017 	ldw	r4,0(sp)
 40002a4:	01403fc4 	movi	r5,255
 40002a8:	40009480 	call	4000948 <__umodsi3>
 40002ac:	110001e4 	muli	r4,r2,7
 40002b0:	01403fc4 	movi	r5,255
 40002b4:	40007ec0 	call	40007ec <__divsi3>

            alt_u8 Led_Val = 0x00;

            for (alt_u8 i = 0; i <= xval; i++) {
 40002b8:	0007883a 	mov	r3,zero
 40002bc:	12003fcc 	andi	r8,r2,255
                // Set the (LED) in LED_Vals
            	Led_Val |= (1 << i);
 40002c0:	01c00044 	movi	r7,1
 40002c4:	19003fcc 	andi	r4,r3,255
 40002c8:	3908983a 	sll	r4,r7,r4
            alt_u8 raw_xval = (alt_u8)(xAccel % 255);
            alt_u8 xval = ((7 * raw_xval) / 255);

            alt_u8 Led_Val = 0x00;

            for (alt_u8 i = 0; i <= xval; i++) {
 40002cc:	18c00044 	addi	r3,r3,1
 40002d0:	19803fcc 	andi	r6,r3,255
                // Set the (LED) in LED_Vals
            	Led_Val |= (1 << i);
 40002d4:	2420b03a 	or	r16,r4,r16
            alt_u8 raw_xval = (alt_u8)(xAccel % 255);
            alt_u8 xval = ((7 * raw_xval) / 255);

            alt_u8 Led_Val = 0x00;

            for (alt_u8 i = 0; i <= xval; i++) {
 40002d8:	41bffa2e 	bgeu	r8,r6,40002c4 <__ram_exceptions_end+0xfabfc138>
                // Set the (LED) in LED_Vals
            	Led_Val |= (1 << i);
            }

            printf("x = %u\n", xval);
 40002dc:	01010074 	movhi	r4,1025
 40002e0:	100b883a 	mov	r5,r2
 40002e4:	213e0904 	addi	r4,r4,-2012
 40002e8:	40009d00 	call	40009d0 <printf>

            update_led(Led_Val);
 40002ec:	81003fcc 	andi	r4,r16,255
 40002f0:	04801844 	movi	r18,97
 40002f4:	40007b80 	call	40007b8 <update_led>
            delay_wait();
 40002f8:	40006240 	call	4000624 <delay_wait>
 40002fc:	003fce06 	br	4000238 <__ram_exceptions_end+0xfabfc0ac>
            mode = 'a'; // Switch to accelerometer mode
            alt_printf("Switched to accelerometer mode\n");
            init_accel();
        } else if (input == 'b') {
            mode = 'b'; // Switch to binary counter mode
            alt_printf("Switched to binary counter mode\n");
 4000300:	01010074 	movhi	r4,1025
 4000304:	213dfc04 	addi	r4,r4,-2064
 4000308:	400d46c0 	call	400d46c <alt_printf>

        } else if (mode == 'b') {
            // Binary counter mode
        	// declare the local variables need in main()

        	alt_printf("\nled_control program starting...\n\n");
 400030c:	01010074 	movhi	r4,1025
 4000310:	213dc604 	addi	r4,r4,-2280
 4000314:	400d46c0 	call	400d46c <alt_printf>
        	alt_printf("\nPress 'u' to count up by one\n");
 4000318:	01010074 	movhi	r4,1025
 400031c:	213e0b04 	addi	r4,r4,-2004
 4000320:	400d46c0 	call	400d46c <alt_printf>
        	alt_printf("Press 'd' to count down by one\n");
 4000324:	01010074 	movhi	r4,1025
 4000328:	213e1304 	addi	r4,r4,-1972
 400032c:	400d46c0 	call	400d46c <alt_printf>
        	alt_printf("Press '3' to count up by threes\n");
 4000330:	01010074 	movhi	r4,1025
 4000334:	213e1b04 	addi	r4,r4,-1940
 4000338:	400d46c0 	call	400d46c <alt_printf>
        	alt_printf("Press 'q' to count up by fives\n");
 400033c:	01010074 	movhi	r4,1025
 4000340:	213e2404 	addi	r4,r4,-1904
 4000344:	400d46c0 	call	400d46c <alt_printf>
        	alt_printf("Press 'w' to count down by tens\n");
 4000348:	01010074 	movhi	r4,1025
 400034c:	213e2c04 	addi	r4,r4,-1872
 4000350:	400d46c0 	call	400d46c <alt_printf>
        	input = alt_getchar();
 4000354:	400d1f40 	call	400d1f4 <alt_getchar>
 4000358:	1021883a 	mov	r16,r2
        	alt_getchar();
        	alt_printf("You selected: '%c'\n",input);
 400035c:	84003fcc 	andi	r16,r16,255
        	alt_printf("Press 'd' to count down by one\n");
        	alt_printf("Press '3' to count up by threes\n");
        	alt_printf("Press 'q' to count up by fives\n");
        	alt_printf("Press 'w' to count down by tens\n");
        	input = alt_getchar();
        	alt_getchar();
 4000360:	400d1f40 	call	400d1f4 <alt_getchar>
        	alt_printf("You selected: '%c'\n",input);
 4000364:	8400201c 	xori	r16,r16,128
 4000368:	01010074 	movhi	r4,1025
 400036c:	843fe004 	addi	r16,r16,-128
 4000370:	213def04 	addi	r4,r4,-2116
 4000374:	800b883a 	mov	r5,r16
 4000378:	400d46c0 	call	400d46c <alt_printf>
        	if (input == 'u') {
 400037c:	00801d44 	movi	r2,117
 4000380:	80803a26 	beq	r16,r2,400046c <main+0x278>
        	dir = 1;
        	binary_count = 0;
        	alt_printf(" - counting up by 1\n");
        	}
        	else if (input == 'd') {
 4000384:	00801904 	movi	r2,100
 4000388:	80803f26 	beq	r16,r2,4000488 <main+0x294>
        	dir = -1;
        	binary_count = MAX_COUNT;
        	alt_printf(" - counting down by 1\n");
        	}
        	else if (input == 'w') {
 400038c:	00801dc4 	movi	r2,119
 4000390:	80804426 	beq	r16,r2,40004a4 <main+0x2b0>
        	dir = -10;
        	binary_count = MAX_COUNT;
        	alt_printf(" - counting down by 10\n");
        	}
        	else if (input == '3') {
 4000394:	00800cc4 	movi	r2,51
 4000398:	80804926 	beq	r16,r2,40004c0 <main+0x2cc>
        	dir = 3;
        	binary_count = 0;
        	alt_printf(" - counting up by 3\n");
        	}
        	else if (input == 'q') {
 400039c:	00801c44 	movi	r2,113
 40003a0:	80802b26 	beq	r16,r2,4000450 <main+0x25c>
        	alt_printf(" - counting up by 5\n");
        	}
        	else {
        	dir = 1;
        	binary_count = MAX_COUNT;
        	alt_printf("INVALID ENTRY");
 40003a4:	01010074 	movhi	r4,1025
 40003a8:	213e5304 	addi	r4,r4,-1716
 40003ac:	04403fc4 	movi	r17,255
        	dir = 5;
        	binary_count = 0;
        	alt_printf(" - counting up by 5\n");
        	}
        	else {
        	dir = 1;
 40003b0:	04800044 	movi	r18,1
        	binary_count = MAX_COUNT;
        	alt_printf("INVALID ENTRY");
 40003b4:	400d46c0 	call	400d46c <alt_printf>
        	binary_count = 0;
        	alt_printf(" - counting up by 5\n");
        	}
        	else {
        	dir = 1;
        	binary_count = MAX_COUNT;
 40003b8:	043fffc4 	movi	r16,-1
        	}
        	// initialize the line wrap count variable
        	PRINT_STDIO_WRAP_COUNT = 0;

        	// print the binary count out the STDOUT
        	print_binary_count_stdio(binary_count); // see src/jtag_uart_util.c
 40003bc:	8809883a 	mov	r4,r17
        	dir = 1;
        	binary_count = MAX_COUNT;
        	alt_printf("INVALID ENTRY");
        	}
        	// initialize the line wrap count variable
        	PRINT_STDIO_WRAP_COUNT = 0;
 40003c0:	d0233115 	stw	zero,-29500(gp)

        	// print the binary count out the STDOUT
        	print_binary_count_stdio(binary_count); // see src/jtag_uart_util.c
 40003c4:	400075c0 	call	400075c <print_binary_count_stdio>
        	// update the green led display with the binary count
        	update_led(binary_count); // see src/led_util.c
 40003c8:	8809883a 	mov	r4,r17
 40003cc:	40007b80 	call	40007b8 <update_led>
        	// wait for the delay period
        	delay_wait(); // see src/delay_wait.c
        	// count until we reach all the maximum count
        	while( (binary_count < MAX_COUNT && dir > 0) || (binary_count > 0 && dir < 0) )
 40003d0:	04c03fc4 	movi	r19,255
        	// print the binary count out the STDOUT
        	print_binary_count_stdio(binary_count); // see src/jtag_uart_util.c
        	// update the green led display with the binary count
        	update_led(binary_count); // see src/led_util.c
        	// wait for the delay period
        	delay_wait(); // see src/delay_wait.c
 40003d4:	40006240 	call	4000624 <delay_wait>
        	// count until we reach all the maximum count
        	while( (binary_count < MAX_COUNT && dir > 0) || (binary_count > 0 && dir < 0) )
        	{
        	if ((dir == -10) && (binary_count) < 0xA)
 40003d8:	057ffd84 	movi	r21,-10
 40003dc:	05000244 	movi	r20,9
        	// update the green led display with the binary count
        	update_led(binary_count); // see src/led_util.c
        	// wait for the delay period
        	delay_wait(); // see src/delay_wait.c
        	// count until we reach all the maximum count
        	while( (binary_count < MAX_COUNT && dir > 0) || (binary_count > 0 && dir < 0) )
 40003e0:	00000506 	br	40003f8 <main+0x204>
 40003e4:	0480130e 	bge	zero,r18,4000434 <main+0x240>
        	break;
        	}
        	// increment the binary counter
        	binary_count= binary_count + dir;
        	// print the binary count out the STDOUT
        	print_binary_count_stdio(binary_count); // see src/jtag_uart_util.c
 40003e8:	400075c0 	call	400075c <print_binary_count_stdio>
        	// update the green led display with the binary count
        	update_led(binary_count); // see src/led_util.c
 40003ec:	8809883a 	mov	r4,r17
 40003f0:	40007b80 	call	40007b8 <update_led>
        	// wait for the delay period
        	delay_wait(); // see src/delay_wait.c
 40003f4:	40006240 	call	4000624 <delay_wait>
 40003f8:	9405883a 	add	r2,r18,r16
        	break;
        	}
        	// increment the binary counter
        	binary_count= binary_count + dir;
        	// print the binary count out the STDOUT
        	print_binary_count_stdio(binary_count); // see src/jtag_uart_util.c
 40003fc:	14403fcc 	andi	r17,r2,255
        	// update the green led display with the binary count
        	update_led(binary_count); // see src/led_util.c
        	// wait for the delay period
        	delay_wait(); // see src/delay_wait.c
        	// count until we reach all the maximum count
        	while( (binary_count < MAX_COUNT && dir > 0) || (binary_count > 0 && dir < 0) )
 4000400:	80c03fcc 	andi	r3,r16,255
        	break;
        	}
        	// increment the binary counter
        	binary_count= binary_count + dir;
        	// print the binary count out the STDOUT
        	print_binary_count_stdio(binary_count); // see src/jtag_uart_util.c
 4000404:	8809883a 	mov	r4,r17
 4000408:	1021883a 	mov	r16,r2
        	// update the green led display with the binary count
        	update_led(binary_count); // see src/led_util.c
        	// wait for the delay period
        	delay_wait(); // see src/delay_wait.c
        	// count until we reach all the maximum count
        	while( (binary_count < MAX_COUNT && dir > 0) || (binary_count > 0 && dir < 0) )
 400040c:	1cfff51e 	bne	r3,r19,40003e4 <__ram_exceptions_end+0xfabfc258>
 4000410:	9000020e 	bge	r18,zero,400041c <main+0x228>
        	{
        	if ((dir == -10) && (binary_count) < 0xA)
 4000414:	957ff41e 	bne	r18,r21,40003e8 <__ram_exceptions_end+0xfabfc25c>
 4000418:	a0fff336 	bltu	r20,r3,40003e8 <__ram_exceptions_end+0xfabfc25c>
        	update_led(binary_count); // see src/led_util.c
        	// wait for the delay period
        	delay_wait(); // see src/delay_wait.c
        	}
        	// announce loop completion on STDOUT and the UART
        	alt_printf("\n\n LED control program completed its loop ...\n\n");
 400041c:	01010074 	movhi	r4,1025
 4000420:	213e5704 	addi	r4,r4,-1700
        	// wait for the delay period
        	delay_wait(); // see src/delay_wait.c
 4000424:	04801884 	movi	r18,98
        	update_led(binary_count); // see src/led_util.c
        	// wait for the delay period
        	delay_wait(); // see src/delay_wait.c
        	}
        	// announce loop completion on STDOUT and the UART
        	alt_printf("\n\n LED control program completed its loop ...\n\n");
 4000428:	400d46c0 	call	400d46c <alt_printf>
        	// wait for the delay period
        	delay_wait(); // see src/delay_wait.c
 400042c:	40006240 	call	4000624 <delay_wait>
 4000430:	003f8106 	br	4000238 <__ram_exceptions_end+0xfabfc0ac>
        	// update the green led display with the binary count
        	update_led(binary_count); // see src/led_util.c
        	// wait for the delay period
        	delay_wait(); // see src/delay_wait.c
        	// count until we reach all the maximum count
        	while( (binary_count < MAX_COUNT && dir > 0) || (binary_count > 0 && dir < 0) )
 4000434:	183ff61e 	bne	r3,zero,4000410 <__ram_exceptions_end+0xfabfc284>
 4000438:	003ff806 	br	400041c <__ram_exceptions_end+0xfabfc290>
        alt_getchar();
        alt_printf("You selected: '%c'\n", input);

        if (input == 'a') {
            mode = 'a'; // Switch to accelerometer mode
            alt_printf("Switched to accelerometer mode\n");
 400043c:	01010074 	movhi	r4,1025
 4000440:	213df404 	addi	r4,r4,-2096
 4000444:	400d46c0 	call	400d46c <alt_printf>
            init_accel();
 4000448:	40001b80 	call	40001b8 <init_accel>
 400044c:	003f9006 	br	4000290 <__ram_exceptions_end+0xfabfc104>
        	alt_printf(" - counting up by 3\n");
        	}
        	else if (input == 'q') {
        	dir = 5;
        	binary_count = 0;
        	alt_printf(" - counting up by 5\n");
 4000450:	01010074 	movhi	r4,1025
 4000454:	213e4d04 	addi	r4,r4,-1740
 4000458:	0023883a 	mov	r17,zero
        	dir = 3;
        	binary_count = 0;
        	alt_printf(" - counting up by 3\n");
        	}
        	else if (input == 'q') {
        	dir = 5;
 400045c:	04800144 	movi	r18,5
        	binary_count = 0;
        	alt_printf(" - counting up by 5\n");
 4000460:	400d46c0 	call	400d46c <alt_printf>
        	binary_count = 0;
        	alt_printf(" - counting up by 3\n");
        	}
        	else if (input == 'q') {
        	dir = 5;
        	binary_count = 0;
 4000464:	0021883a 	mov	r16,zero
 4000468:	003fd406 	br	40003bc <__ram_exceptions_end+0xfabfc230>
        	alt_getchar();
        	alt_printf("You selected: '%c'\n",input);
        	if (input == 'u') {
        	dir = 1;
        	binary_count = 0;
        	alt_printf(" - counting up by 1\n");
 400046c:	01010074 	movhi	r4,1025
 4000470:	213e3504 	addi	r4,r4,-1836
 4000474:	0023883a 	mov	r17,zero
        	alt_printf("Press 'w' to count down by tens\n");
        	input = alt_getchar();
        	alt_getchar();
        	alt_printf("You selected: '%c'\n",input);
        	if (input == 'u') {
        	dir = 1;
 4000478:	04800044 	movi	r18,1
        	binary_count = 0;
        	alt_printf(" - counting up by 1\n");
 400047c:	400d46c0 	call	400d46c <alt_printf>
        	input = alt_getchar();
        	alt_getchar();
        	alt_printf("You selected: '%c'\n",input);
        	if (input == 'u') {
        	dir = 1;
        	binary_count = 0;
 4000480:	0021883a 	mov	r16,zero
 4000484:	003fcd06 	br	40003bc <__ram_exceptions_end+0xfabfc230>
        	alt_printf(" - counting up by 1\n");
        	}
        	else if (input == 'd') {
        	dir = -1;
        	binary_count = MAX_COUNT;
        	alt_printf(" - counting down by 1\n");
 4000488:	01010074 	movhi	r4,1025
 400048c:	213e3b04 	addi	r4,r4,-1812
        	dir = 1;
        	binary_count = 0;
        	alt_printf(" - counting up by 1\n");
        	}
        	else if (input == 'd') {
        	dir = -1;
 4000490:	04bfffc4 	movi	r18,-1
 4000494:	04403fc4 	movi	r17,255
        	binary_count = MAX_COUNT;
        	alt_printf(" - counting down by 1\n");
 4000498:	400d46c0 	call	400d46c <alt_printf>
        	binary_count = 0;
        	alt_printf(" - counting up by 1\n");
        	}
        	else if (input == 'd') {
        	dir = -1;
        	binary_count = MAX_COUNT;
 400049c:	9021883a 	mov	r16,r18
 40004a0:	003fc606 	br	40003bc <__ram_exceptions_end+0xfabfc230>
        	alt_printf(" - counting down by 1\n");
        	}
        	else if (input == 'w') {
        	dir = -10;
        	binary_count = MAX_COUNT;
        	alt_printf(" - counting down by 10\n");
 40004a4:	01010074 	movhi	r4,1025
 40004a8:	213e4104 	addi	r4,r4,-1788
 40004ac:	04403fc4 	movi	r17,255
        	dir = -1;
        	binary_count = MAX_COUNT;
        	alt_printf(" - counting down by 1\n");
        	}
        	else if (input == 'w') {
        	dir = -10;
 40004b0:	04bffd84 	movi	r18,-10
        	binary_count = MAX_COUNT;
        	alt_printf(" - counting down by 10\n");
 40004b4:	400d46c0 	call	400d46c <alt_printf>
        	binary_count = MAX_COUNT;
        	alt_printf(" - counting down by 1\n");
        	}
        	else if (input == 'w') {
        	dir = -10;
        	binary_count = MAX_COUNT;
 40004b8:	043fffc4 	movi	r16,-1
 40004bc:	003fbf06 	br	40003bc <__ram_exceptions_end+0xfabfc230>
        	alt_printf(" - counting down by 10\n");
        	}
        	else if (input == '3') {
        	dir = 3;
        	binary_count = 0;
        	alt_printf(" - counting up by 3\n");
 40004c0:	01010074 	movhi	r4,1025
 40004c4:	213e4704 	addi	r4,r4,-1764
 40004c8:	0023883a 	mov	r17,zero
        	dir = -10;
        	binary_count = MAX_COUNT;
        	alt_printf(" - counting down by 10\n");
        	}
        	else if (input == '3') {
        	dir = 3;
 40004cc:	048000c4 	movi	r18,3
        	binary_count = 0;
        	alt_printf(" - counting up by 3\n");
 40004d0:	400d46c0 	call	400d46c <alt_printf>
        	binary_count = MAX_COUNT;
        	alt_printf(" - counting down by 10\n");
        	}
        	else if (input == '3') {
        	dir = 3;
        	binary_count = 0;
 40004d4:	0021883a 	mov	r16,zero
 40004d8:	003fb806 	br	40003bc <__ram_exceptions_end+0xfabfc230>

040004dc <my_alarm_callback>:

    // cast the context pointer into our alarm context structure pointer
    my_alarm_context = context;

    // increment the alarm count
    my_alarm_context->alarm_count++;
 40004dc:	20800117 	ldw	r2,4(r4)
 40004e0:	10800044 	addi	r2,r2,1
 40004e4:	20800115 	stw	r2,4(r4)

    // return the timeout value for this alarm
    return (my_alarm_context->alarm_timeout);
 40004e8:	20800017 	ldw	r2,0(r4)
}
 40004ec:	f800283a 	ret

040004f0 <alarm_init>:
void alarm_init(void)
{
    int return_result;

    // initialize the context structure for the 250ms alarm and start it running
    ALARM_250MS_CONTEXT.alarm_timeout = alt_ticks_per_second()/4;
 40004f0:	d0a33e17 	ldw	r2,-29448(gp)
    ALARM_250MS_CONTEXT.alarm_count = 0;
    return_result = alt_alarm_start (
 40004f4:	01810034 	movhi	r6,1024
 40004f8:	01010074 	movhi	r4,1025
void alarm_init(void)
{
    int return_result;

    // initialize the context structure for the 250ms alarm and start it running
    ALARM_250MS_CONTEXT.alarm_timeout = alt_ticks_per_second()/4;
 40004fc:	1004d0ba 	srli	r2,r2,2
alt_alarm ALARM_1MS;
MY_ALARM_STRUCT ALARM_1MS_CONTEXT;

// main() should call this initialization routine when it starts to get the alarms running
void alarm_init(void)
{
 4000500:	deffff04 	addi	sp,sp,-4
    int return_result;

    // initialize the context structure for the 250ms alarm and start it running
    ALARM_250MS_CONTEXT.alarm_timeout = alt_ticks_per_second()/4;
    ALARM_250MS_CONTEXT.alarm_count = 0;
    return_result = alt_alarm_start (
 4000504:	31813704 	addi	r6,r6,1244
void alarm_init(void)
{
    int return_result;

    // initialize the context structure for the 250ms alarm and start it running
    ALARM_250MS_CONTEXT.alarm_timeout = alt_ticks_per_second()/4;
 4000508:	d0a32715 	stw	r2,-29540(gp)
    ALARM_250MS_CONTEXT.alarm_count = 0;
 400050c:	d0232815 	stw	zero,-29536(gp)
    return_result = alt_alarm_start (
 4000510:	d1632717 	ldw	r5,-29540(gp)
 4000514:	2105ba04 	addi	r4,r4,5864
 4000518:	d1e32704 	addi	r7,gp,-29540
alt_alarm ALARM_1MS;
MY_ALARM_STRUCT ALARM_1MS_CONTEXT;

// main() should call this initialization routine when it starts to get the alarms running
void alarm_init(void)
{
 400051c:	dfc00015 	stw	ra,0(sp)
    int return_result;

    // initialize the context structure for the 250ms alarm and start it running
    ALARM_250MS_CONTEXT.alarm_timeout = alt_ticks_per_second()/4;
    ALARM_250MS_CONTEXT.alarm_count = 0;
    return_result = alt_alarm_start (
 4000520:	400d0380 	call	400d038 <alt_alarm_start>
                        ALARM_250MS_CONTEXT.alarm_timeout,  //alt_u32 nticks
                        my_alarm_callback,                  //alt_u32 (*callback) (void* context)
                        (void*)(&ALARM_250MS_CONTEXT)       //void* context
                    );

    if(return_result)
 4000524:	10003a1e 	bne	r2,zero,4000610 <alarm_init+0x120>
        alt_printf("\n\nError when starting 250ms alarm...\n");
        error_loop();
    }

    // initialize the context structure for the 100ms alarm and start it running
    ALARM_100MS_CONTEXT.alarm_timeout = alt_ticks_per_second()/10;
 4000528:	d1233e17 	ldw	r4,-29448(gp)
 400052c:	01400284 	movi	r5,10
 4000530:	40008e40 	call	40008e4 <__udivsi3>
 4000534:	d0a32915 	stw	r2,-29532(gp)
    ALARM_100MS_CONTEXT.alarm_count = 0;
 4000538:	d0232a15 	stw	zero,-29528(gp)
    return_result = alt_alarm_start (
 400053c:	d1632917 	ldw	r5,-29532(gp)
 4000540:	01810034 	movhi	r6,1024
 4000544:	01010074 	movhi	r4,1025
 4000548:	31813704 	addi	r6,r6,1244
 400054c:	2105ae04 	addi	r4,r4,5816
 4000550:	d1e32904 	addi	r7,gp,-29532
 4000554:	400d0380 	call	400d038 <alt_alarm_start>
                        ALARM_100MS_CONTEXT.alarm_timeout,  //alt_u32 nticks
                        my_alarm_callback,                  //alt_u32 (*callback) (void* context)
                        (void*)(&ALARM_100MS_CONTEXT)       //void* context
                    );

    if(return_result)
 4000558:	1000281e 	bne	r2,zero,40005fc <alarm_init+0x10c>
        alt_printf("\n\nError when starting 100ms alarm...\n");
        error_loop();
    }

    // initialize the context structure for the 10ms alarm and start it running
    ALARM_10MS_CONTEXT.alarm_timeout = alt_ticks_per_second()/100;
 400055c:	d1233e17 	ldw	r4,-29448(gp)
 4000560:	01401904 	movi	r5,100
 4000564:	40008e40 	call	40008e4 <__udivsi3>
 4000568:	d0a32b15 	stw	r2,-29524(gp)
    ALARM_10MS_CONTEXT.alarm_count = 0;
 400056c:	d0232c15 	stw	zero,-29520(gp)
    return_result = alt_alarm_start (
 4000570:	d1632b17 	ldw	r5,-29524(gp)
 4000574:	01810034 	movhi	r6,1024
 4000578:	01010074 	movhi	r4,1025
 400057c:	31813704 	addi	r6,r6,1244
 4000580:	2105c004 	addi	r4,r4,5888
 4000584:	d1e32b04 	addi	r7,gp,-29524
 4000588:	400d0380 	call	400d038 <alt_alarm_start>
                        ALARM_10MS_CONTEXT.alarm_timeout,   //alt_u32 nticks
                        my_alarm_callback,                  //alt_u32 (*callback) (void* context)
                        (void*)(&ALARM_10MS_CONTEXT)        //void* context
                    );

    if(return_result)
 400058c:	1000161e 	bne	r2,zero,40005e8 <alarm_init+0xf8>
        alt_printf("\n\nError when starting 10ms alarm...\n");
        error_loop();
    }

    // initialize the context structure for the 1ms alarm and start it running
    ALARM_1MS_CONTEXT.alarm_timeout = alt_ticks_per_second()/1000;
 4000590:	d1233e17 	ldw	r4,-29448(gp)
 4000594:	0140fa04 	movi	r5,1000
 4000598:	40008e40 	call	40008e4 <__udivsi3>
 400059c:	d0a32d15 	stw	r2,-29516(gp)
    ALARM_1MS_CONTEXT.alarm_count = 0;
 40005a0:	d0232e15 	stw	zero,-29512(gp)
    return_result = alt_alarm_start (
 40005a4:	d1632d17 	ldw	r5,-29516(gp)
 40005a8:	01810034 	movhi	r6,1024
 40005ac:	01010074 	movhi	r4,1025
 40005b0:	31813704 	addi	r6,r6,1244
 40005b4:	2105b404 	addi	r4,r4,5840
 40005b8:	d1e32d04 	addi	r7,gp,-29516
 40005bc:	400d0380 	call	400d038 <alt_alarm_start>
                        ALARM_1MS_CONTEXT.alarm_timeout,    //alt_u32 nticks
                        my_alarm_callback,                  //alt_u32 (*callback) (void* context)
                        (void*)(&ALARM_1MS_CONTEXT)         //void* context
                    );

    if(return_result)
 40005c0:	1000031e 	bne	r2,zero,40005d0 <alarm_init+0xe0>
    {
        alt_printf("\n\nError when starting 1ms alarm...\n");
        error_loop();
    }

}
 40005c4:	dfc00017 	ldw	ra,0(sp)
 40005c8:	dec00104 	addi	sp,sp,4
 40005cc:	f800283a 	ret
                        (void*)(&ALARM_1MS_CONTEXT)         //void* context
                    );

    if(return_result)
    {
        alt_printf("\n\nError when starting 1ms alarm...\n");
 40005d0:	01010074 	movhi	r4,1025
 40005d4:	213e8104 	addi	r4,r4,-1532
 40005d8:	400d46c0 	call	400d46c <alt_printf>
        error_loop();
    }

}
 40005dc:	dfc00017 	ldw	ra,0(sp)
 40005e0:	dec00104 	addi	sp,sp,4
                    );

    if(return_result)
    {
        alt_printf("\n\nError when starting 1ms alarm...\n");
        error_loop();
 40005e4:	40007381 	jmpi	4000738 <error_loop>
                        (void*)(&ALARM_10MS_CONTEXT)        //void* context
                    );

    if(return_result)
    {
        alt_printf("\n\nError when starting 10ms alarm...\n");
 40005e8:	01010074 	movhi	r4,1025
 40005ec:	213e7704 	addi	r4,r4,-1572
 40005f0:	400d46c0 	call	400d46c <alt_printf>
        error_loop();
 40005f4:	40007380 	call	4000738 <error_loop>
 40005f8:	003fe506 	br	4000590 <__ram_exceptions_end+0xfabfc404>
                        (void*)(&ALARM_100MS_CONTEXT)       //void* context
                    );

    if(return_result)
    {
        alt_printf("\n\nError when starting 100ms alarm...\n");
 40005fc:	01010074 	movhi	r4,1025
 4000600:	213e6d04 	addi	r4,r4,-1612
 4000604:	400d46c0 	call	400d46c <alt_printf>
        error_loop();
 4000608:	40007380 	call	4000738 <error_loop>
 400060c:	003fd306 	br	400055c <__ram_exceptions_end+0xfabfc3d0>
                        (void*)(&ALARM_250MS_CONTEXT)       //void* context
                    );

    if(return_result)
    {
        alt_printf("\n\nError when starting 250ms alarm...\n");
 4000610:	01010074 	movhi	r4,1025
 4000614:	213e6304 	addi	r4,r4,-1652
 4000618:	400d46c0 	call	400d46c <alt_printf>
        error_loop();
 400061c:	40007380 	call	4000738 <error_loop>
 4000620:	003fc106 	br	4000528 <__ram_exceptions_end+0xfabfc39c>

04000624 <delay_wait>:
volatile alt_u32 LAST_DELAY = 0;
volatile alt_u8  DELAY_MODE = DELAY_MODE_100MS;

// the main() loop can call this routine to delay based on the current delay mode
void delay_wait(void)
{
 4000624:	defffa04 	addi	sp,sp,-24
 4000628:	dc000015 	stw	r16,0(sp)
    alt_u32 this_delay = LAST_DELAY;
 400062c:	d4232f17 	ldw	r16,-29508(gp)

    if(DELAY_MODE != DELAY_MODE_NONE)
 4000630:	d0a00003 	ldbu	r2,-32768(gp)
volatile alt_u32 LAST_DELAY = 0;
volatile alt_u8  DELAY_MODE = DELAY_MODE_100MS;

// the main() loop can call this routine to delay based on the current delay mode
void delay_wait(void)
{
 4000634:	dfc00515 	stw	ra,20(sp)
 4000638:	dd000415 	stw	r20,16(sp)
 400063c:	dcc00315 	stw	r19,12(sp)
 4000640:	dc800215 	stw	r18,8(sp)
 4000644:	dc400115 	stw	r17,4(sp)
    alt_u32 this_delay = LAST_DELAY;

    if(DELAY_MODE != DELAY_MODE_NONE)
 4000648:	10803fcc 	andi	r2,r2,255
 400064c:	10001326 	beq	r2,zero,400069c <delay_wait+0x78>
    {
        do      // wait until we see the proper delay count increment
        {
            switch(DELAY_MODE)
 4000650:	04400084 	movi	r17,2
 4000654:	048000c4 	movi	r18,3
 4000658:	05000104 	movi	r20,4
 400065c:	04c00044 	movi	r19,1
 4000660:	00000506 	br	4000678 <delay_wait+0x54>
 4000664:	14801c26 	beq	r2,r18,40006d8 <delay_wait+0xb4>
 4000668:	1500161e 	bne	r2,r20,40006c4 <delay_wait+0xa0>
            {
                case(DELAY_MODE_250MS):
                    this_delay = ALARM_250MS_CONTEXT.alarm_count;
 400066c:	d4232817 	ldw	r16,-29536(gp)
                    break;
                default:
                    alt_printf("Error: invalid delay mode detected...\n");
                    error_loop();
            }
        } while(LAST_DELAY == this_delay);
 4000670:	d0a32f17 	ldw	r2,-29508(gp)
 4000674:	8080081e 	bne	r16,r2,4000698 <delay_wait+0x74>

    if(DELAY_MODE != DELAY_MODE_NONE)
    {
        do      // wait until we see the proper delay count increment
        {
            switch(DELAY_MODE)
 4000678:	d0a00003 	ldbu	r2,-32768(gp)
 400067c:	10803fcc 	andi	r2,r2,255
 4000680:	14400e26 	beq	r2,r17,40006bc <delay_wait+0x98>
 4000684:	88bff736 	bltu	r17,r2,4000664 <__ram_exceptions_end+0xfabfc4d8>
 4000688:	14c00e1e 	bne	r2,r19,40006c4 <delay_wait+0xa0>
                    break;
                case(DELAY_MODE_10MS):
                    this_delay = ALARM_10MS_CONTEXT.alarm_count;
                    break;
                case(DELAY_MODE_1MS):
                    this_delay = ALARM_1MS_CONTEXT.alarm_count;
 400068c:	d4232e17 	ldw	r16,-29512(gp)
                    break;
                default:
                    alt_printf("Error: invalid delay mode detected...\n");
                    error_loop();
            }
        } while(LAST_DELAY == this_delay);
 4000690:	d0a32f17 	ldw	r2,-29508(gp)
 4000694:	80bff826 	beq	r16,r2,4000678 <__ram_exceptions_end+0xfabfc4ec>

        LAST_DELAY = this_delay;
 4000698:	d4232f15 	stw	r16,-29508(gp)
    }

}
 400069c:	dfc00517 	ldw	ra,20(sp)
 40006a0:	dd000417 	ldw	r20,16(sp)
 40006a4:	dcc00317 	ldw	r19,12(sp)
 40006a8:	dc800217 	ldw	r18,8(sp)
 40006ac:	dc400117 	ldw	r17,4(sp)
 40006b0:	dc000017 	ldw	r16,0(sp)
 40006b4:	dec00604 	addi	sp,sp,24
 40006b8:	f800283a 	ret
                    break;
                case(DELAY_MODE_100MS):
                    this_delay = ALARM_100MS_CONTEXT.alarm_count;
                    break;
                case(DELAY_MODE_10MS):
                    this_delay = ALARM_10MS_CONTEXT.alarm_count;
 40006bc:	d4232c17 	ldw	r16,-29520(gp)
                    break;
 40006c0:	003feb06 	br	4000670 <__ram_exceptions_end+0xfabfc4e4>
                case(DELAY_MODE_1MS):
                    this_delay = ALARM_1MS_CONTEXT.alarm_count;
                    break;
                default:
                    alt_printf("Error: invalid delay mode detected...\n");
 40006c4:	01010074 	movhi	r4,1025
 40006c8:	213e8a04 	addi	r4,r4,-1496
 40006cc:	400d46c0 	call	400d46c <alt_printf>
                    error_loop();
 40006d0:	40007380 	call	4000738 <error_loop>
 40006d4:	003fe606 	br	4000670 <__ram_exceptions_end+0xfabfc4e4>
            {
                case(DELAY_MODE_250MS):
                    this_delay = ALARM_250MS_CONTEXT.alarm_count;
                    break;
                case(DELAY_MODE_100MS):
                    this_delay = ALARM_100MS_CONTEXT.alarm_count;
 40006d8:	d4232a17 	ldw	r16,-29528(gp)
                    break;
 40006dc:	003fe406 	br	4000670 <__ram_exceptions_end+0xfabfc4e4>

040006e0 <set_delay_mode_250ms>:
}

// these are convenience routines for setting the delay modes
void set_delay_mode_250ms(void)
{
   DELAY_MODE = DELAY_MODE_250MS;
 40006e0:	00800104 	movi	r2,4
 40006e4:	d0a00005 	stb	r2,-32768(gp)
   LAST_DELAY = ALARM_250MS_CONTEXT.alarm_count;
 40006e8:	d0a32817 	ldw	r2,-29536(gp)
 40006ec:	d0a32f15 	stw	r2,-29508(gp)
 40006f0:	f800283a 	ret

040006f4 <set_delay_mode_100ms>:
}

void set_delay_mode_100ms(void)
{
   DELAY_MODE = DELAY_MODE_100MS;
 40006f4:	008000c4 	movi	r2,3
 40006f8:	d0a00005 	stb	r2,-32768(gp)
   LAST_DELAY = ALARM_100MS_CONTEXT.alarm_count;
 40006fc:	d0a32a17 	ldw	r2,-29528(gp)
 4000700:	d0a32f15 	stw	r2,-29508(gp)
 4000704:	f800283a 	ret

04000708 <set_delay_mode_10ms>:
}

void set_delay_mode_10ms(void)
{
   DELAY_MODE = DELAY_MODE_10MS;
 4000708:	00800084 	movi	r2,2
 400070c:	d0a00005 	stb	r2,-32768(gp)
   LAST_DELAY = ALARM_10MS_CONTEXT.alarm_count;
 4000710:	d0a32c17 	ldw	r2,-29520(gp)
 4000714:	d0a32f15 	stw	r2,-29508(gp)
 4000718:	f800283a 	ret

0400071c <set_delay_mode_1ms>:
}

void set_delay_mode_1ms(void)
{
   DELAY_MODE = DELAY_MODE_1MS;
 400071c:	00800044 	movi	r2,1
 4000720:	d0a00005 	stb	r2,-32768(gp)
   LAST_DELAY = ALARM_1MS_CONTEXT.alarm_count;
 4000724:	d0a32e17 	ldw	r2,-29512(gp)
 4000728:	d0a32f15 	stw	r2,-29508(gp)
 400072c:	f800283a 	ret

04000730 <set_delay_mode_none>:
}

void set_delay_mode_none(void)
{
   DELAY_MODE = DELAY_MODE_NONE;
 4000730:	d0200005 	stb	zero,-32768(gp)
 4000734:	f800283a 	ret

04000738 <error_loop>:

// any non-recoverable errors that are detected in the application can jump to here
void error_loop(void)
{
    // indicate that we got into the error loop
    alt_printf("\nError loop entered...\n");
 4000738:	01010074 	movhi	r4,1025

#include "../inc/main_includes.h"

// any non-recoverable errors that are detected in the application can jump to here
void error_loop(void)
{
 400073c:	deffff04 	addi	sp,sp,-4
    // indicate that we got into the error loop
    alt_printf("\nError loop entered...\n");
 4000740:	213e9404 	addi	r4,r4,-1456

#include "../inc/main_includes.h"

// any non-recoverable errors that are detected in the application can jump to here
void error_loop(void)
{
 4000744:	dfc00015 	stw	ra,0(sp)
    // indicate that we got into the error loop
    alt_printf("\nError loop entered...\n");
 4000748:	400d46c0 	call	400d46c <alt_printf>
    alt_printf("\nApplication halted...\n");
 400074c:	01010074 	movhi	r4,1025
 4000750:	213e9a04 	addi	r4,r4,-1432
 4000754:	400d46c0 	call	400d46c <alt_printf>
 4000758:	003fff06 	br	4000758 <__ram_exceptions_end+0xfabfc5cc>

0400075c <print_binary_count_stdio>:

// this routine is called by the main() loop
void print_binary_count_stdio(alt_u16 binary_count)
{
    // print if we aren't masked off
    if(!PRINT_STDIO_MASK)
 400075c:	d0a33017 	ldw	r2,-29504(gp)
 4000760:	10000126 	beq	r2,zero,4000768 <print_binary_count_stdio+0xc>
        {
            alt_printf("\n");
            PRINT_STDIO_WRAP_COUNT = 0;
        }
    }
}
 4000764:	f800283a 	ret
 4000768:	200b883a 	mov	r5,r4
{
    // print if we aren't masked off
    if(!PRINT_STDIO_MASK)
    {
        // print the binary count
        alt_printf("0x%x ", binary_count);
 400076c:	01010074 	movhi	r4,1025
volatile int PRINT_STDIO_WRAP_COUNT = 0;
volatile int PRINT_STDIO_MASK = 0;

// this routine is called by the main() loop
void print_binary_count_stdio(alt_u16 binary_count)
{
 4000770:	deffff04 	addi	sp,sp,-4
    // print if we aren't masked off
    if(!PRINT_STDIO_MASK)
    {
        // print the binary count
        alt_printf("0x%x ", binary_count);
 4000774:	213ea004 	addi	r4,r4,-1408
 4000778:	297fffcc 	andi	r5,r5,65535
volatile int PRINT_STDIO_WRAP_COUNT = 0;
volatile int PRINT_STDIO_MASK = 0;

// this routine is called by the main() loop
void print_binary_count_stdio(alt_u16 binary_count)
{
 400077c:	dfc00015 	stw	ra,0(sp)
    // print if we aren't masked off
    if(!PRINT_STDIO_MASK)
    {
        // print the binary count
        alt_printf("0x%x ", binary_count);
 4000780:	400d46c0 	call	400d46c <alt_printf>

        // print a new line character after every 16 prints
        PRINT_STDIO_WRAP_COUNT++;
 4000784:	d0a33117 	ldw	r2,-29500(gp)
        if(PRINT_STDIO_WRAP_COUNT >= 16)
 4000788:	00c003c4 	movi	r3,15
    {
        // print the binary count
        alt_printf("0x%x ", binary_count);

        // print a new line character after every 16 prints
        PRINT_STDIO_WRAP_COUNT++;
 400078c:	10800044 	addi	r2,r2,1
 4000790:	d0a33115 	stw	r2,-29500(gp)
        if(PRINT_STDIO_WRAP_COUNT >= 16)
 4000794:	d0a33117 	ldw	r2,-29500(gp)
 4000798:	1880040e 	bge	r3,r2,40007ac <print_binary_count_stdio+0x50>
        {
            alt_printf("\n");
 400079c:	01010074 	movhi	r4,1025
 40007a0:	213e7604 	addi	r4,r4,-1576
 40007a4:	400d46c0 	call	400d46c <alt_printf>
            PRINT_STDIO_WRAP_COUNT = 0;
 40007a8:	d0233115 	stw	zero,-29500(gp)
        }
    }
}
 40007ac:	dfc00017 	ldw	ra,0(sp)
 40007b0:	dec00104 	addi	sp,sp,4
 40007b4:	f800283a 	ret

040007b8 <update_led>:

// convenience routine for updating the bank of leds
void update_led(alt_u8 display_value)
{
//display_value = ~(display_value);
LED_STATE = display_value & 0xFF;
 40007b8:	d1233245 	stb	r4,-29495(gp)
LED_STATE &= ~LED_MASK;
 40007bc:	d0a33203 	ldbu	r2,-29496(gp)
 40007c0:	d0e33243 	ldbu	r3,-29495(gp)
 40007c4:	10803fcc 	andi	r2,r2,255
 40007c8:	0084303a 	nor	r2,zero,r2
 40007cc:	10c4703a 	and	r2,r2,r3
 40007d0:	d0a33245 	stb	r2,-29495(gp)
IOWR_ALTERA_AVALON_PIO_DATA(LED_PIO_BASE, LED_STATE);
 40007d4:	d0a33243 	ldbu	r2,-29495(gp)
 40007d8:	00c20034 	movhi	r3,2048
 40007dc:	18c00c04 	addi	r3,r3,48
 40007e0:	10803fcc 	andi	r2,r2,255
 40007e4:	18800035 	stwio	r2,0(r3)
 40007e8:	f800283a 	ret

040007ec <__divsi3>:
 40007ec:	20001b16 	blt	r4,zero,400085c <__divsi3+0x70>
 40007f0:	000f883a 	mov	r7,zero
 40007f4:	28001616 	blt	r5,zero,4000850 <__divsi3+0x64>
 40007f8:	200d883a 	mov	r6,r4
 40007fc:	29001a2e 	bgeu	r5,r4,4000868 <__divsi3+0x7c>
 4000800:	00800804 	movi	r2,32
 4000804:	00c00044 	movi	r3,1
 4000808:	00000106 	br	4000810 <__divsi3+0x24>
 400080c:	10000d26 	beq	r2,zero,4000844 <__divsi3+0x58>
 4000810:	294b883a 	add	r5,r5,r5
 4000814:	10bfffc4 	addi	r2,r2,-1
 4000818:	18c7883a 	add	r3,r3,r3
 400081c:	293ffb36 	bltu	r5,r4,400080c <__ram_exceptions_end+0xfabfc680>
 4000820:	0005883a 	mov	r2,zero
 4000824:	18000726 	beq	r3,zero,4000844 <__divsi3+0x58>
 4000828:	0005883a 	mov	r2,zero
 400082c:	31400236 	bltu	r6,r5,4000838 <__divsi3+0x4c>
 4000830:	314dc83a 	sub	r6,r6,r5
 4000834:	10c4b03a 	or	r2,r2,r3
 4000838:	1806d07a 	srli	r3,r3,1
 400083c:	280ad07a 	srli	r5,r5,1
 4000840:	183ffa1e 	bne	r3,zero,400082c <__ram_exceptions_end+0xfabfc6a0>
 4000844:	38000126 	beq	r7,zero,400084c <__divsi3+0x60>
 4000848:	0085c83a 	sub	r2,zero,r2
 400084c:	f800283a 	ret
 4000850:	014bc83a 	sub	r5,zero,r5
 4000854:	39c0005c 	xori	r7,r7,1
 4000858:	003fe706 	br	40007f8 <__ram_exceptions_end+0xfabfc66c>
 400085c:	0109c83a 	sub	r4,zero,r4
 4000860:	01c00044 	movi	r7,1
 4000864:	003fe306 	br	40007f4 <__ram_exceptions_end+0xfabfc668>
 4000868:	00c00044 	movi	r3,1
 400086c:	003fee06 	br	4000828 <__ram_exceptions_end+0xfabfc69c>

04000870 <__modsi3>:
 4000870:	20001716 	blt	r4,zero,40008d0 <__modsi3+0x60>
 4000874:	000f883a 	mov	r7,zero
 4000878:	2005883a 	mov	r2,r4
 400087c:	28001216 	blt	r5,zero,40008c8 <__modsi3+0x58>
 4000880:	2900162e 	bgeu	r5,r4,40008dc <__modsi3+0x6c>
 4000884:	01800804 	movi	r6,32
 4000888:	00c00044 	movi	r3,1
 400088c:	00000106 	br	4000894 <__modsi3+0x24>
 4000890:	30000a26 	beq	r6,zero,40008bc <__modsi3+0x4c>
 4000894:	294b883a 	add	r5,r5,r5
 4000898:	31bfffc4 	addi	r6,r6,-1
 400089c:	18c7883a 	add	r3,r3,r3
 40008a0:	293ffb36 	bltu	r5,r4,4000890 <__ram_exceptions_end+0xfabfc704>
 40008a4:	18000526 	beq	r3,zero,40008bc <__modsi3+0x4c>
 40008a8:	1806d07a 	srli	r3,r3,1
 40008ac:	11400136 	bltu	r2,r5,40008b4 <__modsi3+0x44>
 40008b0:	1145c83a 	sub	r2,r2,r5
 40008b4:	280ad07a 	srli	r5,r5,1
 40008b8:	183ffb1e 	bne	r3,zero,40008a8 <__ram_exceptions_end+0xfabfc71c>
 40008bc:	38000126 	beq	r7,zero,40008c4 <__modsi3+0x54>
 40008c0:	0085c83a 	sub	r2,zero,r2
 40008c4:	f800283a 	ret
 40008c8:	014bc83a 	sub	r5,zero,r5
 40008cc:	003fec06 	br	4000880 <__ram_exceptions_end+0xfabfc6f4>
 40008d0:	0109c83a 	sub	r4,zero,r4
 40008d4:	01c00044 	movi	r7,1
 40008d8:	003fe706 	br	4000878 <__ram_exceptions_end+0xfabfc6ec>
 40008dc:	00c00044 	movi	r3,1
 40008e0:	003ff106 	br	40008a8 <__ram_exceptions_end+0xfabfc71c>

040008e4 <__udivsi3>:
 40008e4:	200d883a 	mov	r6,r4
 40008e8:	2900152e 	bgeu	r5,r4,4000940 <__udivsi3+0x5c>
 40008ec:	28001416 	blt	r5,zero,4000940 <__udivsi3+0x5c>
 40008f0:	00800804 	movi	r2,32
 40008f4:	00c00044 	movi	r3,1
 40008f8:	00000206 	br	4000904 <__udivsi3+0x20>
 40008fc:	10000e26 	beq	r2,zero,4000938 <__udivsi3+0x54>
 4000900:	28000516 	blt	r5,zero,4000918 <__udivsi3+0x34>
 4000904:	294b883a 	add	r5,r5,r5
 4000908:	10bfffc4 	addi	r2,r2,-1
 400090c:	18c7883a 	add	r3,r3,r3
 4000910:	293ffa36 	bltu	r5,r4,40008fc <__ram_exceptions_end+0xfabfc770>
 4000914:	18000826 	beq	r3,zero,4000938 <__udivsi3+0x54>
 4000918:	0005883a 	mov	r2,zero
 400091c:	31400236 	bltu	r6,r5,4000928 <__udivsi3+0x44>
 4000920:	314dc83a 	sub	r6,r6,r5
 4000924:	10c4b03a 	or	r2,r2,r3
 4000928:	1806d07a 	srli	r3,r3,1
 400092c:	280ad07a 	srli	r5,r5,1
 4000930:	183ffa1e 	bne	r3,zero,400091c <__ram_exceptions_end+0xfabfc790>
 4000934:	f800283a 	ret
 4000938:	0005883a 	mov	r2,zero
 400093c:	f800283a 	ret
 4000940:	00c00044 	movi	r3,1
 4000944:	003ff406 	br	4000918 <__ram_exceptions_end+0xfabfc78c>

04000948 <__umodsi3>:
 4000948:	2005883a 	mov	r2,r4
 400094c:	2900122e 	bgeu	r5,r4,4000998 <__umodsi3+0x50>
 4000950:	28001116 	blt	r5,zero,4000998 <__umodsi3+0x50>
 4000954:	01800804 	movi	r6,32
 4000958:	00c00044 	movi	r3,1
 400095c:	00000206 	br	4000968 <__umodsi3+0x20>
 4000960:	30000c26 	beq	r6,zero,4000994 <__umodsi3+0x4c>
 4000964:	28000516 	blt	r5,zero,400097c <__umodsi3+0x34>
 4000968:	294b883a 	add	r5,r5,r5
 400096c:	31bfffc4 	addi	r6,r6,-1
 4000970:	18c7883a 	add	r3,r3,r3
 4000974:	293ffa36 	bltu	r5,r4,4000960 <__ram_exceptions_end+0xfabfc7d4>
 4000978:	18000626 	beq	r3,zero,4000994 <__umodsi3+0x4c>
 400097c:	1806d07a 	srli	r3,r3,1
 4000980:	11400136 	bltu	r2,r5,4000988 <__umodsi3+0x40>
 4000984:	1145c83a 	sub	r2,r2,r5
 4000988:	280ad07a 	srli	r5,r5,1
 400098c:	183ffb1e 	bne	r3,zero,400097c <__ram_exceptions_end+0xfabfc7f0>
 4000990:	f800283a 	ret
 4000994:	f800283a 	ret
 4000998:	00c00044 	movi	r3,1
 400099c:	003ff706 	br	400097c <__ram_exceptions_end+0xfabfc7f0>

040009a0 <_printf_r>:
 40009a0:	defffd04 	addi	sp,sp,-12
 40009a4:	2805883a 	mov	r2,r5
 40009a8:	dfc00015 	stw	ra,0(sp)
 40009ac:	d9800115 	stw	r6,4(sp)
 40009b0:	d9c00215 	stw	r7,8(sp)
 40009b4:	21400217 	ldw	r5,8(r4)
 40009b8:	d9c00104 	addi	r7,sp,4
 40009bc:	100d883a 	mov	r6,r2
 40009c0:	4000a0c0 	call	4000a0c <___vfprintf_internal_r>
 40009c4:	dfc00017 	ldw	ra,0(sp)
 40009c8:	dec00304 	addi	sp,sp,12
 40009cc:	f800283a 	ret

040009d0 <printf>:
 40009d0:	defffc04 	addi	sp,sp,-16
 40009d4:	dfc00015 	stw	ra,0(sp)
 40009d8:	d9400115 	stw	r5,4(sp)
 40009dc:	d9800215 	stw	r6,8(sp)
 40009e0:	d9c00315 	stw	r7,12(sp)
 40009e4:	00810074 	movhi	r2,1025
 40009e8:	10826504 	addi	r2,r2,2452
 40009ec:	10800017 	ldw	r2,0(r2)
 40009f0:	200b883a 	mov	r5,r4
 40009f4:	d9800104 	addi	r6,sp,4
 40009f8:	11000217 	ldw	r4,8(r2)
 40009fc:	4002c040 	call	4002c04 <__vfprintf_internal>
 4000a00:	dfc00017 	ldw	ra,0(sp)
 4000a04:	dec00404 	addi	sp,sp,16
 4000a08:	f800283a 	ret

04000a0c <___vfprintf_internal_r>:
 4000a0c:	deffb804 	addi	sp,sp,-288
 4000a10:	dfc04715 	stw	ra,284(sp)
 4000a14:	ddc04515 	stw	r23,276(sp)
 4000a18:	dd404315 	stw	r21,268(sp)
 4000a1c:	d9002c15 	stw	r4,176(sp)
 4000a20:	282f883a 	mov	r23,r5
 4000a24:	302b883a 	mov	r21,r6
 4000a28:	d9c02d15 	stw	r7,180(sp)
 4000a2c:	df004615 	stw	fp,280(sp)
 4000a30:	dd804415 	stw	r22,272(sp)
 4000a34:	dd004215 	stw	r20,264(sp)
 4000a38:	dcc04115 	stw	r19,260(sp)
 4000a3c:	dc804015 	stw	r18,256(sp)
 4000a40:	dc403f15 	stw	r17,252(sp)
 4000a44:	dc003e15 	stw	r16,248(sp)
 4000a48:	40053680 	call	4005368 <_localeconv_r>
 4000a4c:	10800017 	ldw	r2,0(r2)
 4000a50:	1009883a 	mov	r4,r2
 4000a54:	d8803415 	stw	r2,208(sp)
 4000a58:	40073900 	call	4007390 <strlen>
 4000a5c:	d8803715 	stw	r2,220(sp)
 4000a60:	d8802c17 	ldw	r2,176(sp)
 4000a64:	10000226 	beq	r2,zero,4000a70 <___vfprintf_internal_r+0x64>
 4000a68:	10800e17 	ldw	r2,56(r2)
 4000a6c:	1000f926 	beq	r2,zero,4000e54 <___vfprintf_internal_r+0x448>
 4000a70:	b880030b 	ldhu	r2,12(r23)
 4000a74:	10c8000c 	andi	r3,r2,8192
 4000a78:	1800061e 	bne	r3,zero,4000a94 <___vfprintf_internal_r+0x88>
 4000a7c:	b9001917 	ldw	r4,100(r23)
 4000a80:	00f7ffc4 	movi	r3,-8193
 4000a84:	10880014 	ori	r2,r2,8192
 4000a88:	20c6703a 	and	r3,r4,r3
 4000a8c:	b880030d 	sth	r2,12(r23)
 4000a90:	b8c01915 	stw	r3,100(r23)
 4000a94:	10c0020c 	andi	r3,r2,8
 4000a98:	1800c126 	beq	r3,zero,4000da0 <___vfprintf_internal_r+0x394>
 4000a9c:	b8c00417 	ldw	r3,16(r23)
 4000aa0:	1800bf26 	beq	r3,zero,4000da0 <___vfprintf_internal_r+0x394>
 4000aa4:	1080068c 	andi	r2,r2,26
 4000aa8:	00c00284 	movi	r3,10
 4000aac:	10c0c426 	beq	r2,r3,4000dc0 <___vfprintf_internal_r+0x3b4>
 4000ab0:	d8c00404 	addi	r3,sp,16
 4000ab4:	05010074 	movhi	r20,1025
 4000ab8:	d9001e04 	addi	r4,sp,120
 4000abc:	a53eb284 	addi	r20,r20,-1334
 4000ac0:	d8c01e15 	stw	r3,120(sp)
 4000ac4:	d8002015 	stw	zero,128(sp)
 4000ac8:	d8001f15 	stw	zero,124(sp)
 4000acc:	d8003315 	stw	zero,204(sp)
 4000ad0:	d8003615 	stw	zero,216(sp)
 4000ad4:	d8003815 	stw	zero,224(sp)
 4000ad8:	1811883a 	mov	r8,r3
 4000adc:	d8003915 	stw	zero,228(sp)
 4000ae0:	d8003a15 	stw	zero,232(sp)
 4000ae4:	d8002f15 	stw	zero,188(sp)
 4000ae8:	d9002815 	stw	r4,160(sp)
 4000aec:	a8800007 	ldb	r2,0(r21)
 4000af0:	10027b26 	beq	r2,zero,40014e0 <___vfprintf_internal_r+0xad4>
 4000af4:	00c00944 	movi	r3,37
 4000af8:	a821883a 	mov	r16,r21
 4000afc:	10c0021e 	bne	r2,r3,4000b08 <___vfprintf_internal_r+0xfc>
 4000b00:	00001406 	br	4000b54 <___vfprintf_internal_r+0x148>
 4000b04:	10c00326 	beq	r2,r3,4000b14 <___vfprintf_internal_r+0x108>
 4000b08:	84000044 	addi	r16,r16,1
 4000b0c:	80800007 	ldb	r2,0(r16)
 4000b10:	103ffc1e 	bne	r2,zero,4000b04 <__ram_exceptions_end+0xfabfc978>
 4000b14:	8563c83a 	sub	r17,r16,r21
 4000b18:	88000e26 	beq	r17,zero,4000b54 <___vfprintf_internal_r+0x148>
 4000b1c:	d8c02017 	ldw	r3,128(sp)
 4000b20:	d8801f17 	ldw	r2,124(sp)
 4000b24:	45400015 	stw	r21,0(r8)
 4000b28:	1c47883a 	add	r3,r3,r17
 4000b2c:	10800044 	addi	r2,r2,1
 4000b30:	d8c02015 	stw	r3,128(sp)
 4000b34:	44400115 	stw	r17,4(r8)
 4000b38:	d8801f15 	stw	r2,124(sp)
 4000b3c:	00c001c4 	movi	r3,7
 4000b40:	1880a716 	blt	r3,r2,4000de0 <___vfprintf_internal_r+0x3d4>
 4000b44:	42000204 	addi	r8,r8,8
 4000b48:	d9402f17 	ldw	r5,188(sp)
 4000b4c:	2c4b883a 	add	r5,r5,r17
 4000b50:	d9402f15 	stw	r5,188(sp)
 4000b54:	80800007 	ldb	r2,0(r16)
 4000b58:	1000a826 	beq	r2,zero,4000dfc <___vfprintf_internal_r+0x3f0>
 4000b5c:	84400047 	ldb	r17,1(r16)
 4000b60:	00bfffc4 	movi	r2,-1
 4000b64:	85400044 	addi	r21,r16,1
 4000b68:	d8002785 	stb	zero,158(sp)
 4000b6c:	0007883a 	mov	r3,zero
 4000b70:	000f883a 	mov	r7,zero
 4000b74:	d8802915 	stw	r2,164(sp)
 4000b78:	d8003115 	stw	zero,196(sp)
 4000b7c:	0025883a 	mov	r18,zero
 4000b80:	01401604 	movi	r5,88
 4000b84:	01800244 	movi	r6,9
 4000b88:	02800a84 	movi	r10,42
 4000b8c:	02401b04 	movi	r9,108
 4000b90:	ad400044 	addi	r21,r21,1
 4000b94:	88bff804 	addi	r2,r17,-32
 4000b98:	28830436 	bltu	r5,r2,40017ac <___vfprintf_internal_r+0xda0>
 4000b9c:	100490ba 	slli	r2,r2,2
 4000ba0:	01010034 	movhi	r4,1024
 4000ba4:	2102ed04 	addi	r4,r4,2996
 4000ba8:	1105883a 	add	r2,r2,r4
 4000bac:	10800017 	ldw	r2,0(r2)
 4000bb0:	1000683a 	jmp	r2
 4000bb4:	040016cc 	andi	r16,zero,91
 4000bb8:	040017ac 	andhi	r16,zero,94
 4000bbc:	040017ac 	andhi	r16,zero,94
 4000bc0:	040016ec 	andhi	r16,zero,91
 4000bc4:	040017ac 	andhi	r16,zero,94
 4000bc8:	040017ac 	andhi	r16,zero,94
 4000bcc:	040017ac 	andhi	r16,zero,94
 4000bd0:	040017ac 	andhi	r16,zero,94
 4000bd4:	040017ac 	andhi	r16,zero,94
 4000bd8:	040017ac 	andhi	r16,zero,94
 4000bdc:	04000e60 	cmpeqi	r16,zero,57
 4000be0:	04001608 	cmpgei	r16,zero,88
 4000be4:	040017ac 	andhi	r16,zero,94
 4000be8:	04000d28 	cmpgeui	r16,zero,52
 4000bec:	04000e88 	cmpgei	r16,zero,58
 4000bf0:	040017ac 	andhi	r16,zero,94
 4000bf4:	04000ec8 	cmpgei	r16,zero,59
 4000bf8:	04000ed4 	movui	r16,59
 4000bfc:	04000ed4 	movui	r16,59
 4000c00:	04000ed4 	movui	r16,59
 4000c04:	04000ed4 	movui	r16,59
 4000c08:	04000ed4 	movui	r16,59
 4000c0c:	04000ed4 	movui	r16,59
 4000c10:	04000ed4 	movui	r16,59
 4000c14:	04000ed4 	movui	r16,59
 4000c18:	04000ed4 	movui	r16,59
 4000c1c:	040017ac 	andhi	r16,zero,94
 4000c20:	040017ac 	andhi	r16,zero,94
 4000c24:	040017ac 	andhi	r16,zero,94
 4000c28:	040017ac 	andhi	r16,zero,94
 4000c2c:	040017ac 	andhi	r16,zero,94
 4000c30:	040017ac 	andhi	r16,zero,94
 4000c34:	040017ac 	andhi	r16,zero,94
 4000c38:	040017ac 	andhi	r16,zero,94
 4000c3c:	040017ac 	andhi	r16,zero,94
 4000c40:	040017ac 	andhi	r16,zero,94
 4000c44:	04000f08 	cmpgei	r16,zero,60
 4000c48:	04000fc4 	movi	r16,63
 4000c4c:	040017ac 	andhi	r16,zero,94
 4000c50:	04000fc4 	movi	r16,63
 4000c54:	040017ac 	andhi	r16,zero,94
 4000c58:	040017ac 	andhi	r16,zero,94
 4000c5c:	040017ac 	andhi	r16,zero,94
 4000c60:	040017ac 	andhi	r16,zero,94
 4000c64:	04001064 	muli	r16,zero,65
 4000c68:	040017ac 	andhi	r16,zero,94
 4000c6c:	040017ac 	andhi	r16,zero,94
 4000c70:	04001070 	cmpltui	r16,zero,65
 4000c74:	040017ac 	andhi	r16,zero,94
 4000c78:	040017ac 	andhi	r16,zero,94
 4000c7c:	040017ac 	andhi	r16,zero,94
 4000c80:	040017ac 	andhi	r16,zero,94
 4000c84:	040017ac 	andhi	r16,zero,94
 4000c88:	040014e8 	cmpgeui	r16,zero,83
 4000c8c:	040017ac 	andhi	r16,zero,94
 4000c90:	040017ac 	andhi	r16,zero,94
 4000c94:	04001548 	cmpgei	r16,zero,85
 4000c98:	040017ac 	andhi	r16,zero,94
 4000c9c:	040017ac 	andhi	r16,zero,94
 4000ca0:	040017ac 	andhi	r16,zero,94
 4000ca4:	040017ac 	andhi	r16,zero,94
 4000ca8:	040017ac 	andhi	r16,zero,94
 4000cac:	040017ac 	andhi	r16,zero,94
 4000cb0:	040017ac 	andhi	r16,zero,94
 4000cb4:	040017ac 	andhi	r16,zero,94
 4000cb8:	040017ac 	andhi	r16,zero,94
 4000cbc:	040017ac 	andhi	r16,zero,94
 4000cc0:	04001758 	cmpnei	r16,zero,93
 4000cc4:	040016f8 	rdprs	r16,zero,91
 4000cc8:	04000fc4 	movi	r16,63
 4000ccc:	04000fc4 	movi	r16,63
 4000cd0:	04000fc4 	movi	r16,63
 4000cd4:	04001708 	cmpgei	r16,zero,92
 4000cd8:	040016f8 	rdprs	r16,zero,91
 4000cdc:	040017ac 	andhi	r16,zero,94
 4000ce0:	040017ac 	andhi	r16,zero,94
 4000ce4:	04001714 	movui	r16,92
 4000ce8:	040017ac 	andhi	r16,zero,94
 4000cec:	04001724 	muli	r16,zero,92
 4000cf0:	040015f8 	rdprs	r16,zero,87
 4000cf4:	04000d34 	movhi	r16,52
 4000cf8:	04001618 	cmpnei	r16,zero,88
 4000cfc:	040017ac 	andhi	r16,zero,94
 4000d00:	04001624 	muli	r16,zero,88
 4000d04:	040017ac 	andhi	r16,zero,94
 4000d08:	04001680 	call	400168 <__alt_mem_sdram-0x3bffe98>
 4000d0c:	040017ac 	andhi	r16,zero,94
 4000d10:	040017ac 	andhi	r16,zero,94
 4000d14:	04001690 	cmplti	r16,zero,90
 4000d18:	d9003117 	ldw	r4,196(sp)
 4000d1c:	d8802d15 	stw	r2,180(sp)
 4000d20:	0109c83a 	sub	r4,zero,r4
 4000d24:	d9003115 	stw	r4,196(sp)
 4000d28:	94800114 	ori	r18,r18,4
 4000d2c:	ac400007 	ldb	r17,0(r21)
 4000d30:	003f9706 	br	4000b90 <__ram_exceptions_end+0xfabfca04>
 4000d34:	00800c04 	movi	r2,48
 4000d38:	d9002d17 	ldw	r4,180(sp)
 4000d3c:	d9402917 	ldw	r5,164(sp)
 4000d40:	d8802705 	stb	r2,156(sp)
 4000d44:	00801e04 	movi	r2,120
 4000d48:	d8802745 	stb	r2,157(sp)
 4000d4c:	d8002785 	stb	zero,158(sp)
 4000d50:	20c00104 	addi	r3,r4,4
 4000d54:	24c00017 	ldw	r19,0(r4)
 4000d58:	002d883a 	mov	r22,zero
 4000d5c:	90800094 	ori	r2,r18,2
 4000d60:	28029a16 	blt	r5,zero,40017cc <___vfprintf_internal_r+0xdc0>
 4000d64:	00bfdfc4 	movi	r2,-129
 4000d68:	90a4703a 	and	r18,r18,r2
 4000d6c:	d8c02d15 	stw	r3,180(sp)
 4000d70:	94800094 	ori	r18,r18,2
 4000d74:	9802871e 	bne	r19,zero,4001794 <___vfprintf_internal_r+0xd88>
 4000d78:	00810074 	movhi	r2,1025
 4000d7c:	10beab04 	addi	r2,r2,-1364
 4000d80:	d8803915 	stw	r2,228(sp)
 4000d84:	04401e04 	movi	r17,120
 4000d88:	d8802917 	ldw	r2,164(sp)
 4000d8c:	0039883a 	mov	fp,zero
 4000d90:	1001e926 	beq	r2,zero,4001538 <___vfprintf_internal_r+0xb2c>
 4000d94:	0027883a 	mov	r19,zero
 4000d98:	002d883a 	mov	r22,zero
 4000d9c:	00020506 	br	40015b4 <___vfprintf_internal_r+0xba8>
 4000da0:	d9002c17 	ldw	r4,176(sp)
 4000da4:	b80b883a 	mov	r5,r23
 4000da8:	4002cdc0 	call	4002cdc <__swsetup_r>
 4000dac:	1005ac1e 	bne	r2,zero,4002460 <___vfprintf_internal_r+0x1a54>
 4000db0:	b880030b 	ldhu	r2,12(r23)
 4000db4:	00c00284 	movi	r3,10
 4000db8:	1080068c 	andi	r2,r2,26
 4000dbc:	10ff3c1e 	bne	r2,r3,4000ab0 <__ram_exceptions_end+0xfabfc924>
 4000dc0:	b880038f 	ldh	r2,14(r23)
 4000dc4:	103f3a16 	blt	r2,zero,4000ab0 <__ram_exceptions_end+0xfabfc924>
 4000dc8:	d9c02d17 	ldw	r7,180(sp)
 4000dcc:	d9002c17 	ldw	r4,176(sp)
 4000dd0:	a80d883a 	mov	r6,r21
 4000dd4:	b80b883a 	mov	r5,r23
 4000dd8:	4002c200 	call	4002c20 <__sbprintf>
 4000ddc:	00001106 	br	4000e24 <___vfprintf_internal_r+0x418>
 4000de0:	d9002c17 	ldw	r4,176(sp)
 4000de4:	d9801e04 	addi	r6,sp,120
 4000de8:	b80b883a 	mov	r5,r23
 4000dec:	40075240 	call	4007524 <__sprint_r>
 4000df0:	1000081e 	bne	r2,zero,4000e14 <___vfprintf_internal_r+0x408>
 4000df4:	da000404 	addi	r8,sp,16
 4000df8:	003f5306 	br	4000b48 <__ram_exceptions_end+0xfabfc9bc>
 4000dfc:	d8802017 	ldw	r2,128(sp)
 4000e00:	10000426 	beq	r2,zero,4000e14 <___vfprintf_internal_r+0x408>
 4000e04:	d9002c17 	ldw	r4,176(sp)
 4000e08:	d9801e04 	addi	r6,sp,120
 4000e0c:	b80b883a 	mov	r5,r23
 4000e10:	40075240 	call	4007524 <__sprint_r>
 4000e14:	b880030b 	ldhu	r2,12(r23)
 4000e18:	1080100c 	andi	r2,r2,64
 4000e1c:	1005901e 	bne	r2,zero,4002460 <___vfprintf_internal_r+0x1a54>
 4000e20:	d8802f17 	ldw	r2,188(sp)
 4000e24:	dfc04717 	ldw	ra,284(sp)
 4000e28:	df004617 	ldw	fp,280(sp)
 4000e2c:	ddc04517 	ldw	r23,276(sp)
 4000e30:	dd804417 	ldw	r22,272(sp)
 4000e34:	dd404317 	ldw	r21,268(sp)
 4000e38:	dd004217 	ldw	r20,264(sp)
 4000e3c:	dcc04117 	ldw	r19,260(sp)
 4000e40:	dc804017 	ldw	r18,256(sp)
 4000e44:	dc403f17 	ldw	r17,252(sp)
 4000e48:	dc003e17 	ldw	r16,248(sp)
 4000e4c:	dec04804 	addi	sp,sp,288
 4000e50:	f800283a 	ret
 4000e54:	d9002c17 	ldw	r4,176(sp)
 4000e58:	4004cb00 	call	4004cb0 <__sinit>
 4000e5c:	003f0406 	br	4000a70 <__ram_exceptions_end+0xfabfc8e4>
 4000e60:	d8802d17 	ldw	r2,180(sp)
 4000e64:	d9002d17 	ldw	r4,180(sp)
 4000e68:	10800017 	ldw	r2,0(r2)
 4000e6c:	d8803115 	stw	r2,196(sp)
 4000e70:	20800104 	addi	r2,r4,4
 4000e74:	d9003117 	ldw	r4,196(sp)
 4000e78:	203fa716 	blt	r4,zero,4000d18 <__ram_exceptions_end+0xfabfcb8c>
 4000e7c:	d8802d15 	stw	r2,180(sp)
 4000e80:	ac400007 	ldb	r17,0(r21)
 4000e84:	003f4206 	br	4000b90 <__ram_exceptions_end+0xfabfca04>
 4000e88:	ac400007 	ldb	r17,0(r21)
 4000e8c:	aac00044 	addi	r11,r21,1
 4000e90:	8a872826 	beq	r17,r10,4002b34 <___vfprintf_internal_r+0x2128>
 4000e94:	88bff404 	addi	r2,r17,-48
 4000e98:	0009883a 	mov	r4,zero
 4000e9c:	30867d36 	bltu	r6,r2,4002894 <___vfprintf_internal_r+0x1e88>
 4000ea0:	5c400007 	ldb	r17,0(r11)
 4000ea4:	210002a4 	muli	r4,r4,10
 4000ea8:	5d400044 	addi	r21,r11,1
 4000eac:	a817883a 	mov	r11,r21
 4000eb0:	2089883a 	add	r4,r4,r2
 4000eb4:	88bff404 	addi	r2,r17,-48
 4000eb8:	30bff92e 	bgeu	r6,r2,4000ea0 <__ram_exceptions_end+0xfabfcd14>
 4000ebc:	2005c916 	blt	r4,zero,40025e4 <___vfprintf_internal_r+0x1bd8>
 4000ec0:	d9002915 	stw	r4,164(sp)
 4000ec4:	003f3306 	br	4000b94 <__ram_exceptions_end+0xfabfca08>
 4000ec8:	94802014 	ori	r18,r18,128
 4000ecc:	ac400007 	ldb	r17,0(r21)
 4000ed0:	003f2f06 	br	4000b90 <__ram_exceptions_end+0xfabfca04>
 4000ed4:	a809883a 	mov	r4,r21
 4000ed8:	d8003115 	stw	zero,196(sp)
 4000edc:	88bff404 	addi	r2,r17,-48
 4000ee0:	0017883a 	mov	r11,zero
 4000ee4:	24400007 	ldb	r17,0(r4)
 4000ee8:	5ac002a4 	muli	r11,r11,10
 4000eec:	ad400044 	addi	r21,r21,1
 4000ef0:	a809883a 	mov	r4,r21
 4000ef4:	12d7883a 	add	r11,r2,r11
 4000ef8:	88bff404 	addi	r2,r17,-48
 4000efc:	30bff92e 	bgeu	r6,r2,4000ee4 <__ram_exceptions_end+0xfabfcd58>
 4000f00:	dac03115 	stw	r11,196(sp)
 4000f04:	003f2306 	br	4000b94 <__ram_exceptions_end+0xfabfca08>
 4000f08:	18c03fcc 	andi	r3,r3,255
 4000f0c:	18072b1e 	bne	r3,zero,4002bbc <___vfprintf_internal_r+0x21b0>
 4000f10:	94800414 	ori	r18,r18,16
 4000f14:	9080080c 	andi	r2,r18,32
 4000f18:	10037b26 	beq	r2,zero,4001d08 <___vfprintf_internal_r+0x12fc>
 4000f1c:	d9402d17 	ldw	r5,180(sp)
 4000f20:	28800117 	ldw	r2,4(r5)
 4000f24:	2cc00017 	ldw	r19,0(r5)
 4000f28:	29400204 	addi	r5,r5,8
 4000f2c:	d9402d15 	stw	r5,180(sp)
 4000f30:	102d883a 	mov	r22,r2
 4000f34:	10044b16 	blt	r2,zero,4002064 <___vfprintf_internal_r+0x1658>
 4000f38:	d9402917 	ldw	r5,164(sp)
 4000f3c:	df002783 	ldbu	fp,158(sp)
 4000f40:	2803bc16 	blt	r5,zero,4001e34 <___vfprintf_internal_r+0x1428>
 4000f44:	00ffdfc4 	movi	r3,-129
 4000f48:	9d84b03a 	or	r2,r19,r22
 4000f4c:	90e4703a 	and	r18,r18,r3
 4000f50:	10017726 	beq	r2,zero,4001530 <___vfprintf_internal_r+0xb24>
 4000f54:	b0038326 	beq	r22,zero,4001d64 <___vfprintf_internal_r+0x1358>
 4000f58:	dc402a15 	stw	r17,168(sp)
 4000f5c:	dc001e04 	addi	r16,sp,120
 4000f60:	b023883a 	mov	r17,r22
 4000f64:	402d883a 	mov	r22,r8
 4000f68:	9809883a 	mov	r4,r19
 4000f6c:	880b883a 	mov	r5,r17
 4000f70:	01800284 	movi	r6,10
 4000f74:	000f883a 	mov	r7,zero
 4000f78:	400a4980 	call	400a498 <__umoddi3>
 4000f7c:	10800c04 	addi	r2,r2,48
 4000f80:	843fffc4 	addi	r16,r16,-1
 4000f84:	9809883a 	mov	r4,r19
 4000f88:	880b883a 	mov	r5,r17
 4000f8c:	80800005 	stb	r2,0(r16)
 4000f90:	01800284 	movi	r6,10
 4000f94:	000f883a 	mov	r7,zero
 4000f98:	4009f200 	call	4009f20 <__udivdi3>
 4000f9c:	1027883a 	mov	r19,r2
 4000fa0:	10c4b03a 	or	r2,r2,r3
 4000fa4:	1823883a 	mov	r17,r3
 4000fa8:	103fef1e 	bne	r2,zero,4000f68 <__ram_exceptions_end+0xfabfcddc>
 4000fac:	d8c02817 	ldw	r3,160(sp)
 4000fb0:	dc402a17 	ldw	r17,168(sp)
 4000fb4:	b011883a 	mov	r8,r22
 4000fb8:	1c07c83a 	sub	r3,r3,r16
 4000fbc:	d8c02e15 	stw	r3,184(sp)
 4000fc0:	00005906 	br	4001128 <___vfprintf_internal_r+0x71c>
 4000fc4:	18c03fcc 	andi	r3,r3,255
 4000fc8:	1806fa1e 	bne	r3,zero,4002bb4 <___vfprintf_internal_r+0x21a8>
 4000fcc:	9080020c 	andi	r2,r18,8
 4000fd0:	10048a26 	beq	r2,zero,40021fc <___vfprintf_internal_r+0x17f0>
 4000fd4:	d8c02d17 	ldw	r3,180(sp)
 4000fd8:	d9002d17 	ldw	r4,180(sp)
 4000fdc:	d9402d17 	ldw	r5,180(sp)
 4000fe0:	18c00017 	ldw	r3,0(r3)
 4000fe4:	21000117 	ldw	r4,4(r4)
 4000fe8:	29400204 	addi	r5,r5,8
 4000fec:	d8c03615 	stw	r3,216(sp)
 4000ff0:	d9003815 	stw	r4,224(sp)
 4000ff4:	d9402d15 	stw	r5,180(sp)
 4000ff8:	d9003617 	ldw	r4,216(sp)
 4000ffc:	d9403817 	ldw	r5,224(sp)
 4001000:	da003d15 	stw	r8,244(sp)
 4001004:	04000044 	movi	r16,1
 4001008:	40070b00 	call	40070b0 <__fpclassifyd>
 400100c:	da003d17 	ldw	r8,244(sp)
 4001010:	14041f1e 	bne	r2,r16,4002090 <___vfprintf_internal_r+0x1684>
 4001014:	d9003617 	ldw	r4,216(sp)
 4001018:	d9403817 	ldw	r5,224(sp)
 400101c:	000d883a 	mov	r6,zero
 4001020:	000f883a 	mov	r7,zero
 4001024:	400bcc80 	call	400bcc8 <__ledf2>
 4001028:	da003d17 	ldw	r8,244(sp)
 400102c:	1005be16 	blt	r2,zero,4002728 <___vfprintf_internal_r+0x1d1c>
 4001030:	df002783 	ldbu	fp,158(sp)
 4001034:	008011c4 	movi	r2,71
 4001038:	1445330e 	bge	r2,r17,4002508 <___vfprintf_internal_r+0x1afc>
 400103c:	04010074 	movhi	r16,1025
 4001040:	843ea304 	addi	r16,r16,-1396
 4001044:	00c000c4 	movi	r3,3
 4001048:	00bfdfc4 	movi	r2,-129
 400104c:	d8c02a15 	stw	r3,168(sp)
 4001050:	90a4703a 	and	r18,r18,r2
 4001054:	d8c02e15 	stw	r3,184(sp)
 4001058:	d8002915 	stw	zero,164(sp)
 400105c:	d8003215 	stw	zero,200(sp)
 4001060:	00003706 	br	4001140 <___vfprintf_internal_r+0x734>
 4001064:	94800214 	ori	r18,r18,8
 4001068:	ac400007 	ldb	r17,0(r21)
 400106c:	003ec806 	br	4000b90 <__ram_exceptions_end+0xfabfca04>
 4001070:	18c03fcc 	andi	r3,r3,255
 4001074:	1806db1e 	bne	r3,zero,4002be4 <___vfprintf_internal_r+0x21d8>
 4001078:	94800414 	ori	r18,r18,16
 400107c:	9080080c 	andi	r2,r18,32
 4001080:	1002d826 	beq	r2,zero,4001be4 <___vfprintf_internal_r+0x11d8>
 4001084:	d9402d17 	ldw	r5,180(sp)
 4001088:	d8c02917 	ldw	r3,164(sp)
 400108c:	d8002785 	stb	zero,158(sp)
 4001090:	28800204 	addi	r2,r5,8
 4001094:	2cc00017 	ldw	r19,0(r5)
 4001098:	2d800117 	ldw	r22,4(r5)
 400109c:	18048f16 	blt	r3,zero,40022dc <___vfprintf_internal_r+0x18d0>
 40010a0:	013fdfc4 	movi	r4,-129
 40010a4:	9d86b03a 	or	r3,r19,r22
 40010a8:	d8802d15 	stw	r2,180(sp)
 40010ac:	9124703a 	and	r18,r18,r4
 40010b0:	1802d91e 	bne	r3,zero,4001c18 <___vfprintf_internal_r+0x120c>
 40010b4:	d8c02917 	ldw	r3,164(sp)
 40010b8:	0039883a 	mov	fp,zero
 40010bc:	1805c326 	beq	r3,zero,40027cc <___vfprintf_internal_r+0x1dc0>
 40010c0:	0027883a 	mov	r19,zero
 40010c4:	002d883a 	mov	r22,zero
 40010c8:	dc001e04 	addi	r16,sp,120
 40010cc:	9806d0fa 	srli	r3,r19,3
 40010d0:	b008977a 	slli	r4,r22,29
 40010d4:	b02cd0fa 	srli	r22,r22,3
 40010d8:	9cc001cc 	andi	r19,r19,7
 40010dc:	98800c04 	addi	r2,r19,48
 40010e0:	843fffc4 	addi	r16,r16,-1
 40010e4:	20e6b03a 	or	r19,r4,r3
 40010e8:	80800005 	stb	r2,0(r16)
 40010ec:	9d86b03a 	or	r3,r19,r22
 40010f0:	183ff61e 	bne	r3,zero,40010cc <__ram_exceptions_end+0xfabfcf40>
 40010f4:	90c0004c 	andi	r3,r18,1
 40010f8:	18013b26 	beq	r3,zero,40015e8 <___vfprintf_internal_r+0xbdc>
 40010fc:	10803fcc 	andi	r2,r2,255
 4001100:	1080201c 	xori	r2,r2,128
 4001104:	10bfe004 	addi	r2,r2,-128
 4001108:	00c00c04 	movi	r3,48
 400110c:	10c13626 	beq	r2,r3,40015e8 <___vfprintf_internal_r+0xbdc>
 4001110:	80ffffc5 	stb	r3,-1(r16)
 4001114:	d8c02817 	ldw	r3,160(sp)
 4001118:	80bfffc4 	addi	r2,r16,-1
 400111c:	1021883a 	mov	r16,r2
 4001120:	1887c83a 	sub	r3,r3,r2
 4001124:	d8c02e15 	stw	r3,184(sp)
 4001128:	d8802e17 	ldw	r2,184(sp)
 400112c:	d9002917 	ldw	r4,164(sp)
 4001130:	1100010e 	bge	r2,r4,4001138 <___vfprintf_internal_r+0x72c>
 4001134:	2005883a 	mov	r2,r4
 4001138:	d8802a15 	stw	r2,168(sp)
 400113c:	d8003215 	stw	zero,200(sp)
 4001140:	e7003fcc 	andi	fp,fp,255
 4001144:	e700201c 	xori	fp,fp,128
 4001148:	e73fe004 	addi	fp,fp,-128
 400114c:	e0000326 	beq	fp,zero,400115c <___vfprintf_internal_r+0x750>
 4001150:	d8c02a17 	ldw	r3,168(sp)
 4001154:	18c00044 	addi	r3,r3,1
 4001158:	d8c02a15 	stw	r3,168(sp)
 400115c:	90c0008c 	andi	r3,r18,2
 4001160:	d8c02b15 	stw	r3,172(sp)
 4001164:	18000326 	beq	r3,zero,4001174 <___vfprintf_internal_r+0x768>
 4001168:	d8c02a17 	ldw	r3,168(sp)
 400116c:	18c00084 	addi	r3,r3,2
 4001170:	d8c02a15 	stw	r3,168(sp)
 4001174:	90c0210c 	andi	r3,r18,132
 4001178:	d8c03015 	stw	r3,192(sp)
 400117c:	1801a31e 	bne	r3,zero,400180c <___vfprintf_internal_r+0xe00>
 4001180:	d9003117 	ldw	r4,196(sp)
 4001184:	d8c02a17 	ldw	r3,168(sp)
 4001188:	20e7c83a 	sub	r19,r4,r3
 400118c:	04c19f0e 	bge	zero,r19,400180c <___vfprintf_internal_r+0xe00>
 4001190:	02400404 	movi	r9,16
 4001194:	d8c02017 	ldw	r3,128(sp)
 4001198:	d8801f17 	ldw	r2,124(sp)
 400119c:	4cc50d0e 	bge	r9,r19,40025d4 <___vfprintf_internal_r+0x1bc8>
 40011a0:	01410074 	movhi	r5,1025
 40011a4:	297eb684 	addi	r5,r5,-1318
 40011a8:	dc403b15 	stw	r17,236(sp)
 40011ac:	d9403515 	stw	r5,212(sp)
 40011b0:	9823883a 	mov	r17,r19
 40011b4:	482d883a 	mov	r22,r9
 40011b8:	9027883a 	mov	r19,r18
 40011bc:	070001c4 	movi	fp,7
 40011c0:	8025883a 	mov	r18,r16
 40011c4:	dc002c17 	ldw	r16,176(sp)
 40011c8:	00000306 	br	40011d8 <___vfprintf_internal_r+0x7cc>
 40011cc:	8c7ffc04 	addi	r17,r17,-16
 40011d0:	42000204 	addi	r8,r8,8
 40011d4:	b440130e 	bge	r22,r17,4001224 <___vfprintf_internal_r+0x818>
 40011d8:	01010074 	movhi	r4,1025
 40011dc:	18c00404 	addi	r3,r3,16
 40011e0:	10800044 	addi	r2,r2,1
 40011e4:	213eb684 	addi	r4,r4,-1318
 40011e8:	41000015 	stw	r4,0(r8)
 40011ec:	45800115 	stw	r22,4(r8)
 40011f0:	d8c02015 	stw	r3,128(sp)
 40011f4:	d8801f15 	stw	r2,124(sp)
 40011f8:	e0bff40e 	bge	fp,r2,40011cc <__ram_exceptions_end+0xfabfd040>
 40011fc:	d9801e04 	addi	r6,sp,120
 4001200:	b80b883a 	mov	r5,r23
 4001204:	8009883a 	mov	r4,r16
 4001208:	40075240 	call	4007524 <__sprint_r>
 400120c:	103f011e 	bne	r2,zero,4000e14 <__ram_exceptions_end+0xfabfcc88>
 4001210:	8c7ffc04 	addi	r17,r17,-16
 4001214:	d8c02017 	ldw	r3,128(sp)
 4001218:	d8801f17 	ldw	r2,124(sp)
 400121c:	da000404 	addi	r8,sp,16
 4001220:	b47fed16 	blt	r22,r17,40011d8 <__ram_exceptions_end+0xfabfd04c>
 4001224:	9021883a 	mov	r16,r18
 4001228:	9825883a 	mov	r18,r19
 400122c:	8827883a 	mov	r19,r17
 4001230:	dc403b17 	ldw	r17,236(sp)
 4001234:	d9403517 	ldw	r5,212(sp)
 4001238:	98c7883a 	add	r3,r19,r3
 400123c:	10800044 	addi	r2,r2,1
 4001240:	41400015 	stw	r5,0(r8)
 4001244:	44c00115 	stw	r19,4(r8)
 4001248:	d8c02015 	stw	r3,128(sp)
 400124c:	d8801f15 	stw	r2,124(sp)
 4001250:	010001c4 	movi	r4,7
 4001254:	2082a316 	blt	r4,r2,4001ce4 <___vfprintf_internal_r+0x12d8>
 4001258:	df002787 	ldb	fp,158(sp)
 400125c:	42000204 	addi	r8,r8,8
 4001260:	e0000c26 	beq	fp,zero,4001294 <___vfprintf_internal_r+0x888>
 4001264:	d8801f17 	ldw	r2,124(sp)
 4001268:	d9002784 	addi	r4,sp,158
 400126c:	18c00044 	addi	r3,r3,1
 4001270:	10800044 	addi	r2,r2,1
 4001274:	41000015 	stw	r4,0(r8)
 4001278:	01000044 	movi	r4,1
 400127c:	41000115 	stw	r4,4(r8)
 4001280:	d8c02015 	stw	r3,128(sp)
 4001284:	d8801f15 	stw	r2,124(sp)
 4001288:	010001c4 	movi	r4,7
 400128c:	20823c16 	blt	r4,r2,4001b80 <___vfprintf_internal_r+0x1174>
 4001290:	42000204 	addi	r8,r8,8
 4001294:	d8802b17 	ldw	r2,172(sp)
 4001298:	10000c26 	beq	r2,zero,40012cc <___vfprintf_internal_r+0x8c0>
 400129c:	d8801f17 	ldw	r2,124(sp)
 40012a0:	d9002704 	addi	r4,sp,156
 40012a4:	18c00084 	addi	r3,r3,2
 40012a8:	10800044 	addi	r2,r2,1
 40012ac:	41000015 	stw	r4,0(r8)
 40012b0:	01000084 	movi	r4,2
 40012b4:	41000115 	stw	r4,4(r8)
 40012b8:	d8c02015 	stw	r3,128(sp)
 40012bc:	d8801f15 	stw	r2,124(sp)
 40012c0:	010001c4 	movi	r4,7
 40012c4:	20823616 	blt	r4,r2,4001ba0 <___vfprintf_internal_r+0x1194>
 40012c8:	42000204 	addi	r8,r8,8
 40012cc:	d9003017 	ldw	r4,192(sp)
 40012d0:	00802004 	movi	r2,128
 40012d4:	20819926 	beq	r4,r2,400193c <___vfprintf_internal_r+0xf30>
 40012d8:	d9402917 	ldw	r5,164(sp)
 40012dc:	d8802e17 	ldw	r2,184(sp)
 40012e0:	28adc83a 	sub	r22,r5,r2
 40012e4:	0580310e 	bge	zero,r22,40013ac <___vfprintf_internal_r+0x9a0>
 40012e8:	07000404 	movi	fp,16
 40012ec:	d8801f17 	ldw	r2,124(sp)
 40012f0:	e584140e 	bge	fp,r22,4002344 <___vfprintf_internal_r+0x1938>
 40012f4:	01410074 	movhi	r5,1025
 40012f8:	297eb284 	addi	r5,r5,-1334
 40012fc:	dc402915 	stw	r17,164(sp)
 4001300:	d9402b15 	stw	r5,172(sp)
 4001304:	b023883a 	mov	r17,r22
 4001308:	04c001c4 	movi	r19,7
 400130c:	a82d883a 	mov	r22,r21
 4001310:	902b883a 	mov	r21,r18
 4001314:	8025883a 	mov	r18,r16
 4001318:	dc002c17 	ldw	r16,176(sp)
 400131c:	00000306 	br	400132c <___vfprintf_internal_r+0x920>
 4001320:	8c7ffc04 	addi	r17,r17,-16
 4001324:	42000204 	addi	r8,r8,8
 4001328:	e440110e 	bge	fp,r17,4001370 <___vfprintf_internal_r+0x964>
 400132c:	18c00404 	addi	r3,r3,16
 4001330:	10800044 	addi	r2,r2,1
 4001334:	45000015 	stw	r20,0(r8)
 4001338:	47000115 	stw	fp,4(r8)
 400133c:	d8c02015 	stw	r3,128(sp)
 4001340:	d8801f15 	stw	r2,124(sp)
 4001344:	98bff60e 	bge	r19,r2,4001320 <__ram_exceptions_end+0xfabfd194>
 4001348:	d9801e04 	addi	r6,sp,120
 400134c:	b80b883a 	mov	r5,r23
 4001350:	8009883a 	mov	r4,r16
 4001354:	40075240 	call	4007524 <__sprint_r>
 4001358:	103eae1e 	bne	r2,zero,4000e14 <__ram_exceptions_end+0xfabfcc88>
 400135c:	8c7ffc04 	addi	r17,r17,-16
 4001360:	d8c02017 	ldw	r3,128(sp)
 4001364:	d8801f17 	ldw	r2,124(sp)
 4001368:	da000404 	addi	r8,sp,16
 400136c:	e47fef16 	blt	fp,r17,400132c <__ram_exceptions_end+0xfabfd1a0>
 4001370:	9021883a 	mov	r16,r18
 4001374:	a825883a 	mov	r18,r21
 4001378:	b02b883a 	mov	r21,r22
 400137c:	882d883a 	mov	r22,r17
 4001380:	dc402917 	ldw	r17,164(sp)
 4001384:	d9002b17 	ldw	r4,172(sp)
 4001388:	1d87883a 	add	r3,r3,r22
 400138c:	10800044 	addi	r2,r2,1
 4001390:	41000015 	stw	r4,0(r8)
 4001394:	45800115 	stw	r22,4(r8)
 4001398:	d8c02015 	stw	r3,128(sp)
 400139c:	d8801f15 	stw	r2,124(sp)
 40013a0:	010001c4 	movi	r4,7
 40013a4:	2081ee16 	blt	r4,r2,4001b60 <___vfprintf_internal_r+0x1154>
 40013a8:	42000204 	addi	r8,r8,8
 40013ac:	9080400c 	andi	r2,r18,256
 40013b0:	1001181e 	bne	r2,zero,4001814 <___vfprintf_internal_r+0xe08>
 40013b4:	d9402e17 	ldw	r5,184(sp)
 40013b8:	d8801f17 	ldw	r2,124(sp)
 40013bc:	44000015 	stw	r16,0(r8)
 40013c0:	1947883a 	add	r3,r3,r5
 40013c4:	10800044 	addi	r2,r2,1
 40013c8:	41400115 	stw	r5,4(r8)
 40013cc:	d8c02015 	stw	r3,128(sp)
 40013d0:	d8801f15 	stw	r2,124(sp)
 40013d4:	010001c4 	movi	r4,7
 40013d8:	2081d316 	blt	r4,r2,4001b28 <___vfprintf_internal_r+0x111c>
 40013dc:	42000204 	addi	r8,r8,8
 40013e0:	9480010c 	andi	r18,r18,4
 40013e4:	90003226 	beq	r18,zero,40014b0 <___vfprintf_internal_r+0xaa4>
 40013e8:	d9403117 	ldw	r5,196(sp)
 40013ec:	d8802a17 	ldw	r2,168(sp)
 40013f0:	28a1c83a 	sub	r16,r5,r2
 40013f4:	04002e0e 	bge	zero,r16,40014b0 <___vfprintf_internal_r+0xaa4>
 40013f8:	04400404 	movi	r17,16
 40013fc:	d8801f17 	ldw	r2,124(sp)
 4001400:	8c04a20e 	bge	r17,r16,400268c <___vfprintf_internal_r+0x1c80>
 4001404:	01410074 	movhi	r5,1025
 4001408:	297eb684 	addi	r5,r5,-1318
 400140c:	d9403515 	stw	r5,212(sp)
 4001410:	048001c4 	movi	r18,7
 4001414:	dcc02c17 	ldw	r19,176(sp)
 4001418:	00000306 	br	4001428 <___vfprintf_internal_r+0xa1c>
 400141c:	843ffc04 	addi	r16,r16,-16
 4001420:	42000204 	addi	r8,r8,8
 4001424:	8c00130e 	bge	r17,r16,4001474 <___vfprintf_internal_r+0xa68>
 4001428:	01010074 	movhi	r4,1025
 400142c:	18c00404 	addi	r3,r3,16
 4001430:	10800044 	addi	r2,r2,1
 4001434:	213eb684 	addi	r4,r4,-1318
 4001438:	41000015 	stw	r4,0(r8)
 400143c:	44400115 	stw	r17,4(r8)
 4001440:	d8c02015 	stw	r3,128(sp)
 4001444:	d8801f15 	stw	r2,124(sp)
 4001448:	90bff40e 	bge	r18,r2,400141c <__ram_exceptions_end+0xfabfd290>
 400144c:	d9801e04 	addi	r6,sp,120
 4001450:	b80b883a 	mov	r5,r23
 4001454:	9809883a 	mov	r4,r19
 4001458:	40075240 	call	4007524 <__sprint_r>
 400145c:	103e6d1e 	bne	r2,zero,4000e14 <__ram_exceptions_end+0xfabfcc88>
 4001460:	843ffc04 	addi	r16,r16,-16
 4001464:	d8c02017 	ldw	r3,128(sp)
 4001468:	d8801f17 	ldw	r2,124(sp)
 400146c:	da000404 	addi	r8,sp,16
 4001470:	8c3fed16 	blt	r17,r16,4001428 <__ram_exceptions_end+0xfabfd29c>
 4001474:	d9403517 	ldw	r5,212(sp)
 4001478:	1c07883a 	add	r3,r3,r16
 400147c:	10800044 	addi	r2,r2,1
 4001480:	41400015 	stw	r5,0(r8)
 4001484:	44000115 	stw	r16,4(r8)
 4001488:	d8c02015 	stw	r3,128(sp)
 400148c:	d8801f15 	stw	r2,124(sp)
 4001490:	010001c4 	movi	r4,7
 4001494:	2080060e 	bge	r4,r2,40014b0 <___vfprintf_internal_r+0xaa4>
 4001498:	d9002c17 	ldw	r4,176(sp)
 400149c:	d9801e04 	addi	r6,sp,120
 40014a0:	b80b883a 	mov	r5,r23
 40014a4:	40075240 	call	4007524 <__sprint_r>
 40014a8:	103e5a1e 	bne	r2,zero,4000e14 <__ram_exceptions_end+0xfabfcc88>
 40014ac:	d8c02017 	ldw	r3,128(sp)
 40014b0:	d8803117 	ldw	r2,196(sp)
 40014b4:	d9002a17 	ldw	r4,168(sp)
 40014b8:	1100010e 	bge	r2,r4,40014c0 <___vfprintf_internal_r+0xab4>
 40014bc:	2005883a 	mov	r2,r4
 40014c0:	d9402f17 	ldw	r5,188(sp)
 40014c4:	288b883a 	add	r5,r5,r2
 40014c8:	d9402f15 	stw	r5,188(sp)
 40014cc:	18019e1e 	bne	r3,zero,4001b48 <___vfprintf_internal_r+0x113c>
 40014d0:	a8800007 	ldb	r2,0(r21)
 40014d4:	d8001f15 	stw	zero,124(sp)
 40014d8:	da000404 	addi	r8,sp,16
 40014dc:	103d851e 	bne	r2,zero,4000af4 <__ram_exceptions_end+0xfabfc968>
 40014e0:	a821883a 	mov	r16,r21
 40014e4:	003d9b06 	br	4000b54 <__ram_exceptions_end+0xfabfc9c8>
 40014e8:	18c03fcc 	andi	r3,r3,255
 40014ec:	1805c11e 	bne	r3,zero,4002bf4 <___vfprintf_internal_r+0x21e8>
 40014f0:	94800414 	ori	r18,r18,16
 40014f4:	9080080c 	andi	r2,r18,32
 40014f8:	10020c26 	beq	r2,zero,4001d2c <___vfprintf_internal_r+0x1320>
 40014fc:	d8802d17 	ldw	r2,180(sp)
 4001500:	d9002917 	ldw	r4,164(sp)
 4001504:	d8002785 	stb	zero,158(sp)
 4001508:	10c00204 	addi	r3,r2,8
 400150c:	14c00017 	ldw	r19,0(r2)
 4001510:	15800117 	ldw	r22,4(r2)
 4001514:	20040f16 	blt	r4,zero,4002554 <___vfprintf_internal_r+0x1b48>
 4001518:	013fdfc4 	movi	r4,-129
 400151c:	9d84b03a 	or	r2,r19,r22
 4001520:	d8c02d15 	stw	r3,180(sp)
 4001524:	9124703a 	and	r18,r18,r4
 4001528:	0039883a 	mov	fp,zero
 400152c:	103e891e 	bne	r2,zero,4000f54 <__ram_exceptions_end+0xfabfcdc8>
 4001530:	d9002917 	ldw	r4,164(sp)
 4001534:	2002c11e 	bne	r4,zero,400203c <___vfprintf_internal_r+0x1630>
 4001538:	d8002915 	stw	zero,164(sp)
 400153c:	d8002e15 	stw	zero,184(sp)
 4001540:	dc001e04 	addi	r16,sp,120
 4001544:	003ef806 	br	4001128 <__ram_exceptions_end+0xfabfcf9c>
 4001548:	18c03fcc 	andi	r3,r3,255
 400154c:	18059d1e 	bne	r3,zero,4002bc4 <___vfprintf_internal_r+0x21b8>
 4001550:	01410074 	movhi	r5,1025
 4001554:	297ea604 	addi	r5,r5,-1384
 4001558:	d9403915 	stw	r5,228(sp)
 400155c:	9080080c 	andi	r2,r18,32
 4001560:	10005226 	beq	r2,zero,40016ac <___vfprintf_internal_r+0xca0>
 4001564:	d8802d17 	ldw	r2,180(sp)
 4001568:	14c00017 	ldw	r19,0(r2)
 400156c:	15800117 	ldw	r22,4(r2)
 4001570:	10800204 	addi	r2,r2,8
 4001574:	d8802d15 	stw	r2,180(sp)
 4001578:	9080004c 	andi	r2,r18,1
 400157c:	10019026 	beq	r2,zero,4001bc0 <___vfprintf_internal_r+0x11b4>
 4001580:	9d84b03a 	or	r2,r19,r22
 4001584:	10036926 	beq	r2,zero,400232c <___vfprintf_internal_r+0x1920>
 4001588:	d8c02917 	ldw	r3,164(sp)
 400158c:	00800c04 	movi	r2,48
 4001590:	d8802705 	stb	r2,156(sp)
 4001594:	dc402745 	stb	r17,157(sp)
 4001598:	d8002785 	stb	zero,158(sp)
 400159c:	90800094 	ori	r2,r18,2
 40015a0:	18045d16 	blt	r3,zero,4002718 <___vfprintf_internal_r+0x1d0c>
 40015a4:	00bfdfc4 	movi	r2,-129
 40015a8:	90a4703a 	and	r18,r18,r2
 40015ac:	94800094 	ori	r18,r18,2
 40015b0:	0039883a 	mov	fp,zero
 40015b4:	d9003917 	ldw	r4,228(sp)
 40015b8:	dc001e04 	addi	r16,sp,120
 40015bc:	988003cc 	andi	r2,r19,15
 40015c0:	b006973a 	slli	r3,r22,28
 40015c4:	2085883a 	add	r2,r4,r2
 40015c8:	9826d13a 	srli	r19,r19,4
 40015cc:	10800003 	ldbu	r2,0(r2)
 40015d0:	b02cd13a 	srli	r22,r22,4
 40015d4:	843fffc4 	addi	r16,r16,-1
 40015d8:	1ce6b03a 	or	r19,r3,r19
 40015dc:	80800005 	stb	r2,0(r16)
 40015e0:	9d84b03a 	or	r2,r19,r22
 40015e4:	103ff51e 	bne	r2,zero,40015bc <__ram_exceptions_end+0xfabfd430>
 40015e8:	d8c02817 	ldw	r3,160(sp)
 40015ec:	1c07c83a 	sub	r3,r3,r16
 40015f0:	d8c02e15 	stw	r3,184(sp)
 40015f4:	003ecc06 	br	4001128 <__ram_exceptions_end+0xfabfcf9c>
 40015f8:	18c03fcc 	andi	r3,r3,255
 40015fc:	183e9f26 	beq	r3,zero,400107c <__ram_exceptions_end+0xfabfcef0>
 4001600:	d9c02785 	stb	r7,158(sp)
 4001604:	003e9d06 	br	400107c <__ram_exceptions_end+0xfabfcef0>
 4001608:	00c00044 	movi	r3,1
 400160c:	01c00ac4 	movi	r7,43
 4001610:	ac400007 	ldb	r17,0(r21)
 4001614:	003d5e06 	br	4000b90 <__ram_exceptions_end+0xfabfca04>
 4001618:	94800814 	ori	r18,r18,32
 400161c:	ac400007 	ldb	r17,0(r21)
 4001620:	003d5b06 	br	4000b90 <__ram_exceptions_end+0xfabfca04>
 4001624:	d8c02d17 	ldw	r3,180(sp)
 4001628:	d8002785 	stb	zero,158(sp)
 400162c:	1c000017 	ldw	r16,0(r3)
 4001630:	1cc00104 	addi	r19,r3,4
 4001634:	80041926 	beq	r16,zero,400269c <___vfprintf_internal_r+0x1c90>
 4001638:	d9002917 	ldw	r4,164(sp)
 400163c:	2003d016 	blt	r4,zero,4002580 <___vfprintf_internal_r+0x1b74>
 4001640:	200d883a 	mov	r6,r4
 4001644:	000b883a 	mov	r5,zero
 4001648:	8009883a 	mov	r4,r16
 400164c:	da003d15 	stw	r8,244(sp)
 4001650:	4005d600 	call	4005d60 <memchr>
 4001654:	da003d17 	ldw	r8,244(sp)
 4001658:	10045426 	beq	r2,zero,40027ac <___vfprintf_internal_r+0x1da0>
 400165c:	1405c83a 	sub	r2,r2,r16
 4001660:	d8802e15 	stw	r2,184(sp)
 4001664:	1003cc16 	blt	r2,zero,4002598 <___vfprintf_internal_r+0x1b8c>
 4001668:	df002783 	ldbu	fp,158(sp)
 400166c:	d8802a15 	stw	r2,168(sp)
 4001670:	dcc02d15 	stw	r19,180(sp)
 4001674:	d8002915 	stw	zero,164(sp)
 4001678:	d8003215 	stw	zero,200(sp)
 400167c:	003eb006 	br	4001140 <__ram_exceptions_end+0xfabfcfb4>
 4001680:	18c03fcc 	andi	r3,r3,255
 4001684:	183f9b26 	beq	r3,zero,40014f4 <__ram_exceptions_end+0xfabfd368>
 4001688:	d9c02785 	stb	r7,158(sp)
 400168c:	003f9906 	br	40014f4 <__ram_exceptions_end+0xfabfd368>
 4001690:	18c03fcc 	andi	r3,r3,255
 4001694:	1805551e 	bne	r3,zero,4002bec <___vfprintf_internal_r+0x21e0>
 4001698:	01410074 	movhi	r5,1025
 400169c:	297eab04 	addi	r5,r5,-1364
 40016a0:	d9403915 	stw	r5,228(sp)
 40016a4:	9080080c 	andi	r2,r18,32
 40016a8:	103fae1e 	bne	r2,zero,4001564 <__ram_exceptions_end+0xfabfd3d8>
 40016ac:	9080040c 	andi	r2,r18,16
 40016b0:	1002de26 	beq	r2,zero,400222c <___vfprintf_internal_r+0x1820>
 40016b4:	d8c02d17 	ldw	r3,180(sp)
 40016b8:	002d883a 	mov	r22,zero
 40016bc:	1cc00017 	ldw	r19,0(r3)
 40016c0:	18c00104 	addi	r3,r3,4
 40016c4:	d8c02d15 	stw	r3,180(sp)
 40016c8:	003fab06 	br	4001578 <__ram_exceptions_end+0xfabfd3ec>
 40016cc:	38803fcc 	andi	r2,r7,255
 40016d0:	1080201c 	xori	r2,r2,128
 40016d4:	10bfe004 	addi	r2,r2,-128
 40016d8:	1002d21e 	bne	r2,zero,4002224 <___vfprintf_internal_r+0x1818>
 40016dc:	00c00044 	movi	r3,1
 40016e0:	01c00804 	movi	r7,32
 40016e4:	ac400007 	ldb	r17,0(r21)
 40016e8:	003d2906 	br	4000b90 <__ram_exceptions_end+0xfabfca04>
 40016ec:	94800054 	ori	r18,r18,1
 40016f0:	ac400007 	ldb	r17,0(r21)
 40016f4:	003d2606 	br	4000b90 <__ram_exceptions_end+0xfabfca04>
 40016f8:	18c03fcc 	andi	r3,r3,255
 40016fc:	183e0526 	beq	r3,zero,4000f14 <__ram_exceptions_end+0xfabfcd88>
 4001700:	d9c02785 	stb	r7,158(sp)
 4001704:	003e0306 	br	4000f14 <__ram_exceptions_end+0xfabfcd88>
 4001708:	94801014 	ori	r18,r18,64
 400170c:	ac400007 	ldb	r17,0(r21)
 4001710:	003d1f06 	br	4000b90 <__ram_exceptions_end+0xfabfca04>
 4001714:	ac400007 	ldb	r17,0(r21)
 4001718:	8a438726 	beq	r17,r9,4002538 <___vfprintf_internal_r+0x1b2c>
 400171c:	94800414 	ori	r18,r18,16
 4001720:	003d1b06 	br	4000b90 <__ram_exceptions_end+0xfabfca04>
 4001724:	18c03fcc 	andi	r3,r3,255
 4001728:	1805341e 	bne	r3,zero,4002bfc <___vfprintf_internal_r+0x21f0>
 400172c:	9080080c 	andi	r2,r18,32
 4001730:	1002cd26 	beq	r2,zero,4002268 <___vfprintf_internal_r+0x185c>
 4001734:	d9402d17 	ldw	r5,180(sp)
 4001738:	d9002f17 	ldw	r4,188(sp)
 400173c:	28800017 	ldw	r2,0(r5)
 4001740:	2007d7fa 	srai	r3,r4,31
 4001744:	29400104 	addi	r5,r5,4
 4001748:	d9402d15 	stw	r5,180(sp)
 400174c:	11000015 	stw	r4,0(r2)
 4001750:	10c00115 	stw	r3,4(r2)
 4001754:	003ce506 	br	4000aec <__ram_exceptions_end+0xfabfc960>
 4001758:	d8c02d17 	ldw	r3,180(sp)
 400175c:	d9002d17 	ldw	r4,180(sp)
 4001760:	d8002785 	stb	zero,158(sp)
 4001764:	18800017 	ldw	r2,0(r3)
 4001768:	21000104 	addi	r4,r4,4
 400176c:	00c00044 	movi	r3,1
 4001770:	d8c02a15 	stw	r3,168(sp)
 4001774:	d8801405 	stb	r2,80(sp)
 4001778:	d9002d15 	stw	r4,180(sp)
 400177c:	d8c02e15 	stw	r3,184(sp)
 4001780:	d8002915 	stw	zero,164(sp)
 4001784:	d8003215 	stw	zero,200(sp)
 4001788:	dc001404 	addi	r16,sp,80
 400178c:	0039883a 	mov	fp,zero
 4001790:	003e7206 	br	400115c <__ram_exceptions_end+0xfabfcfd0>
 4001794:	01010074 	movhi	r4,1025
 4001798:	213eab04 	addi	r4,r4,-1364
 400179c:	0039883a 	mov	fp,zero
 40017a0:	d9003915 	stw	r4,228(sp)
 40017a4:	04401e04 	movi	r17,120
 40017a8:	003f8206 	br	40015b4 <__ram_exceptions_end+0xfabfd428>
 40017ac:	18c03fcc 	andi	r3,r3,255
 40017b0:	1805061e 	bne	r3,zero,4002bcc <___vfprintf_internal_r+0x21c0>
 40017b4:	883d9126 	beq	r17,zero,4000dfc <__ram_exceptions_end+0xfabfcc70>
 40017b8:	00c00044 	movi	r3,1
 40017bc:	d8c02a15 	stw	r3,168(sp)
 40017c0:	dc401405 	stb	r17,80(sp)
 40017c4:	d8002785 	stb	zero,158(sp)
 40017c8:	003fec06 	br	400177c <__ram_exceptions_end+0xfabfd5f0>
 40017cc:	01410074 	movhi	r5,1025
 40017d0:	297eab04 	addi	r5,r5,-1364
 40017d4:	d9403915 	stw	r5,228(sp)
 40017d8:	d8c02d15 	stw	r3,180(sp)
 40017dc:	1025883a 	mov	r18,r2
 40017e0:	04401e04 	movi	r17,120
 40017e4:	9d84b03a 	or	r2,r19,r22
 40017e8:	1000fc1e 	bne	r2,zero,4001bdc <___vfprintf_internal_r+0x11d0>
 40017ec:	0039883a 	mov	fp,zero
 40017f0:	00800084 	movi	r2,2
 40017f4:	10803fcc 	andi	r2,r2,255
 40017f8:	00c00044 	movi	r3,1
 40017fc:	10c20f26 	beq	r2,r3,400203c <___vfprintf_internal_r+0x1630>
 4001800:	00c00084 	movi	r3,2
 4001804:	10fd6326 	beq	r2,r3,4000d94 <__ram_exceptions_end+0xfabfcc08>
 4001808:	003e2d06 	br	40010c0 <__ram_exceptions_end+0xfabfcf34>
 400180c:	d8c02017 	ldw	r3,128(sp)
 4001810:	003e9306 	br	4001260 <__ram_exceptions_end+0xfabfd0d4>
 4001814:	00801944 	movi	r2,101
 4001818:	14407e0e 	bge	r2,r17,4001a14 <___vfprintf_internal_r+0x1008>
 400181c:	d9003617 	ldw	r4,216(sp)
 4001820:	d9403817 	ldw	r5,224(sp)
 4001824:	000d883a 	mov	r6,zero
 4001828:	000f883a 	mov	r7,zero
 400182c:	d8c03c15 	stw	r3,240(sp)
 4001830:	da003d15 	stw	r8,244(sp)
 4001834:	400bb640 	call	400bb64 <__eqdf2>
 4001838:	d8c03c17 	ldw	r3,240(sp)
 400183c:	da003d17 	ldw	r8,244(sp)
 4001840:	1000f71e 	bne	r2,zero,4001c20 <___vfprintf_internal_r+0x1214>
 4001844:	d8801f17 	ldw	r2,124(sp)
 4001848:	01010074 	movhi	r4,1025
 400184c:	213eb204 	addi	r4,r4,-1336
 4001850:	18c00044 	addi	r3,r3,1
 4001854:	10800044 	addi	r2,r2,1
 4001858:	41000015 	stw	r4,0(r8)
 400185c:	01000044 	movi	r4,1
 4001860:	41000115 	stw	r4,4(r8)
 4001864:	d8c02015 	stw	r3,128(sp)
 4001868:	d8801f15 	stw	r2,124(sp)
 400186c:	010001c4 	movi	r4,7
 4001870:	2082b816 	blt	r4,r2,4002354 <___vfprintf_internal_r+0x1948>
 4001874:	42000204 	addi	r8,r8,8
 4001878:	d8802617 	ldw	r2,152(sp)
 400187c:	d9403317 	ldw	r5,204(sp)
 4001880:	11400216 	blt	r2,r5,400188c <___vfprintf_internal_r+0xe80>
 4001884:	9080004c 	andi	r2,r18,1
 4001888:	103ed526 	beq	r2,zero,40013e0 <__ram_exceptions_end+0xfabfd254>
 400188c:	d8803717 	ldw	r2,220(sp)
 4001890:	d9003417 	ldw	r4,208(sp)
 4001894:	d9403717 	ldw	r5,220(sp)
 4001898:	1887883a 	add	r3,r3,r2
 400189c:	d8801f17 	ldw	r2,124(sp)
 40018a0:	41000015 	stw	r4,0(r8)
 40018a4:	41400115 	stw	r5,4(r8)
 40018a8:	10800044 	addi	r2,r2,1
 40018ac:	d8c02015 	stw	r3,128(sp)
 40018b0:	d8801f15 	stw	r2,124(sp)
 40018b4:	010001c4 	movi	r4,7
 40018b8:	20832916 	blt	r4,r2,4002560 <___vfprintf_internal_r+0x1b54>
 40018bc:	42000204 	addi	r8,r8,8
 40018c0:	d8803317 	ldw	r2,204(sp)
 40018c4:	143fffc4 	addi	r16,r2,-1
 40018c8:	043ec50e 	bge	zero,r16,40013e0 <__ram_exceptions_end+0xfabfd254>
 40018cc:	04400404 	movi	r17,16
 40018d0:	d8801f17 	ldw	r2,124(sp)
 40018d4:	8c00880e 	bge	r17,r16,4001af8 <___vfprintf_internal_r+0x10ec>
 40018d8:	01410074 	movhi	r5,1025
 40018dc:	297eb284 	addi	r5,r5,-1334
 40018e0:	d9402b15 	stw	r5,172(sp)
 40018e4:	058001c4 	movi	r22,7
 40018e8:	dcc02c17 	ldw	r19,176(sp)
 40018ec:	00000306 	br	40018fc <___vfprintf_internal_r+0xef0>
 40018f0:	42000204 	addi	r8,r8,8
 40018f4:	843ffc04 	addi	r16,r16,-16
 40018f8:	8c00820e 	bge	r17,r16,4001b04 <___vfprintf_internal_r+0x10f8>
 40018fc:	18c00404 	addi	r3,r3,16
 4001900:	10800044 	addi	r2,r2,1
 4001904:	45000015 	stw	r20,0(r8)
 4001908:	44400115 	stw	r17,4(r8)
 400190c:	d8c02015 	stw	r3,128(sp)
 4001910:	d8801f15 	stw	r2,124(sp)
 4001914:	b0bff60e 	bge	r22,r2,40018f0 <__ram_exceptions_end+0xfabfd764>
 4001918:	d9801e04 	addi	r6,sp,120
 400191c:	b80b883a 	mov	r5,r23
 4001920:	9809883a 	mov	r4,r19
 4001924:	40075240 	call	4007524 <__sprint_r>
 4001928:	103d3a1e 	bne	r2,zero,4000e14 <__ram_exceptions_end+0xfabfcc88>
 400192c:	d8c02017 	ldw	r3,128(sp)
 4001930:	d8801f17 	ldw	r2,124(sp)
 4001934:	da000404 	addi	r8,sp,16
 4001938:	003fee06 	br	40018f4 <__ram_exceptions_end+0xfabfd768>
 400193c:	d9403117 	ldw	r5,196(sp)
 4001940:	d8802a17 	ldw	r2,168(sp)
 4001944:	28adc83a 	sub	r22,r5,r2
 4001948:	05be630e 	bge	zero,r22,40012d8 <__ram_exceptions_end+0xfabfd14c>
 400194c:	07000404 	movi	fp,16
 4001950:	d8801f17 	ldw	r2,124(sp)
 4001954:	e5838f0e 	bge	fp,r22,4002794 <___vfprintf_internal_r+0x1d88>
 4001958:	01410074 	movhi	r5,1025
 400195c:	297eb284 	addi	r5,r5,-1334
 4001960:	dc403015 	stw	r17,192(sp)
 4001964:	d9402b15 	stw	r5,172(sp)
 4001968:	b023883a 	mov	r17,r22
 400196c:	04c001c4 	movi	r19,7
 4001970:	a82d883a 	mov	r22,r21
 4001974:	902b883a 	mov	r21,r18
 4001978:	8025883a 	mov	r18,r16
 400197c:	dc002c17 	ldw	r16,176(sp)
 4001980:	00000306 	br	4001990 <___vfprintf_internal_r+0xf84>
 4001984:	8c7ffc04 	addi	r17,r17,-16
 4001988:	42000204 	addi	r8,r8,8
 400198c:	e440110e 	bge	fp,r17,40019d4 <___vfprintf_internal_r+0xfc8>
 4001990:	18c00404 	addi	r3,r3,16
 4001994:	10800044 	addi	r2,r2,1
 4001998:	45000015 	stw	r20,0(r8)
 400199c:	47000115 	stw	fp,4(r8)
 40019a0:	d8c02015 	stw	r3,128(sp)
 40019a4:	d8801f15 	stw	r2,124(sp)
 40019a8:	98bff60e 	bge	r19,r2,4001984 <__ram_exceptions_end+0xfabfd7f8>
 40019ac:	d9801e04 	addi	r6,sp,120
 40019b0:	b80b883a 	mov	r5,r23
 40019b4:	8009883a 	mov	r4,r16
 40019b8:	40075240 	call	4007524 <__sprint_r>
 40019bc:	103d151e 	bne	r2,zero,4000e14 <__ram_exceptions_end+0xfabfcc88>
 40019c0:	8c7ffc04 	addi	r17,r17,-16
 40019c4:	d8c02017 	ldw	r3,128(sp)
 40019c8:	d8801f17 	ldw	r2,124(sp)
 40019cc:	da000404 	addi	r8,sp,16
 40019d0:	e47fef16 	blt	fp,r17,4001990 <__ram_exceptions_end+0xfabfd804>
 40019d4:	9021883a 	mov	r16,r18
 40019d8:	a825883a 	mov	r18,r21
 40019dc:	b02b883a 	mov	r21,r22
 40019e0:	882d883a 	mov	r22,r17
 40019e4:	dc403017 	ldw	r17,192(sp)
 40019e8:	d9002b17 	ldw	r4,172(sp)
 40019ec:	1d87883a 	add	r3,r3,r22
 40019f0:	10800044 	addi	r2,r2,1
 40019f4:	41000015 	stw	r4,0(r8)
 40019f8:	45800115 	stw	r22,4(r8)
 40019fc:	d8c02015 	stw	r3,128(sp)
 4001a00:	d8801f15 	stw	r2,124(sp)
 4001a04:	010001c4 	movi	r4,7
 4001a08:	20818e16 	blt	r4,r2,4002044 <___vfprintf_internal_r+0x1638>
 4001a0c:	42000204 	addi	r8,r8,8
 4001a10:	003e3106 	br	40012d8 <__ram_exceptions_end+0xfabfd14c>
 4001a14:	d9403317 	ldw	r5,204(sp)
 4001a18:	00800044 	movi	r2,1
 4001a1c:	18c00044 	addi	r3,r3,1
 4001a20:	1141530e 	bge	r2,r5,4001f70 <___vfprintf_internal_r+0x1564>
 4001a24:	dc401f17 	ldw	r17,124(sp)
 4001a28:	00800044 	movi	r2,1
 4001a2c:	40800115 	stw	r2,4(r8)
 4001a30:	8c400044 	addi	r17,r17,1
 4001a34:	44000015 	stw	r16,0(r8)
 4001a38:	d8c02015 	stw	r3,128(sp)
 4001a3c:	dc401f15 	stw	r17,124(sp)
 4001a40:	008001c4 	movi	r2,7
 4001a44:	14416b16 	blt	r2,r17,4001ff4 <___vfprintf_internal_r+0x15e8>
 4001a48:	42000204 	addi	r8,r8,8
 4001a4c:	d8803717 	ldw	r2,220(sp)
 4001a50:	d9003417 	ldw	r4,208(sp)
 4001a54:	8c400044 	addi	r17,r17,1
 4001a58:	10c7883a 	add	r3,r2,r3
 4001a5c:	40800115 	stw	r2,4(r8)
 4001a60:	41000015 	stw	r4,0(r8)
 4001a64:	d8c02015 	stw	r3,128(sp)
 4001a68:	dc401f15 	stw	r17,124(sp)
 4001a6c:	008001c4 	movi	r2,7
 4001a70:	14416916 	blt	r2,r17,4002018 <___vfprintf_internal_r+0x160c>
 4001a74:	45800204 	addi	r22,r8,8
 4001a78:	d9003617 	ldw	r4,216(sp)
 4001a7c:	d9403817 	ldw	r5,224(sp)
 4001a80:	000d883a 	mov	r6,zero
 4001a84:	000f883a 	mov	r7,zero
 4001a88:	d8c03c15 	stw	r3,240(sp)
 4001a8c:	400bb640 	call	400bb64 <__eqdf2>
 4001a90:	d8c03c17 	ldw	r3,240(sp)
 4001a94:	1000bc26 	beq	r2,zero,4001d88 <___vfprintf_internal_r+0x137c>
 4001a98:	d9403317 	ldw	r5,204(sp)
 4001a9c:	84000044 	addi	r16,r16,1
 4001aa0:	8c400044 	addi	r17,r17,1
 4001aa4:	28bfffc4 	addi	r2,r5,-1
 4001aa8:	1887883a 	add	r3,r3,r2
 4001aac:	b0800115 	stw	r2,4(r22)
 4001ab0:	b4000015 	stw	r16,0(r22)
 4001ab4:	d8c02015 	stw	r3,128(sp)
 4001ab8:	dc401f15 	stw	r17,124(sp)
 4001abc:	008001c4 	movi	r2,7
 4001ac0:	14414316 	blt	r2,r17,4001fd0 <___vfprintf_internal_r+0x15c4>
 4001ac4:	b5800204 	addi	r22,r22,8
 4001ac8:	d9003a17 	ldw	r4,232(sp)
 4001acc:	df0022c4 	addi	fp,sp,139
 4001ad0:	8c400044 	addi	r17,r17,1
 4001ad4:	20c7883a 	add	r3,r4,r3
 4001ad8:	b7000015 	stw	fp,0(r22)
 4001adc:	b1000115 	stw	r4,4(r22)
 4001ae0:	d8c02015 	stw	r3,128(sp)
 4001ae4:	dc401f15 	stw	r17,124(sp)
 4001ae8:	008001c4 	movi	r2,7
 4001aec:	14400e16 	blt	r2,r17,4001b28 <___vfprintf_internal_r+0x111c>
 4001af0:	b2000204 	addi	r8,r22,8
 4001af4:	003e3a06 	br	40013e0 <__ram_exceptions_end+0xfabfd254>
 4001af8:	01010074 	movhi	r4,1025
 4001afc:	213eb284 	addi	r4,r4,-1334
 4001b00:	d9002b15 	stw	r4,172(sp)
 4001b04:	d9002b17 	ldw	r4,172(sp)
 4001b08:	1c07883a 	add	r3,r3,r16
 4001b0c:	44000115 	stw	r16,4(r8)
 4001b10:	41000015 	stw	r4,0(r8)
 4001b14:	10800044 	addi	r2,r2,1
 4001b18:	d8c02015 	stw	r3,128(sp)
 4001b1c:	d8801f15 	stw	r2,124(sp)
 4001b20:	010001c4 	movi	r4,7
 4001b24:	20be2d0e 	bge	r4,r2,40013dc <__ram_exceptions_end+0xfabfd250>
 4001b28:	d9002c17 	ldw	r4,176(sp)
 4001b2c:	d9801e04 	addi	r6,sp,120
 4001b30:	b80b883a 	mov	r5,r23
 4001b34:	40075240 	call	4007524 <__sprint_r>
 4001b38:	103cb61e 	bne	r2,zero,4000e14 <__ram_exceptions_end+0xfabfcc88>
 4001b3c:	d8c02017 	ldw	r3,128(sp)
 4001b40:	da000404 	addi	r8,sp,16
 4001b44:	003e2606 	br	40013e0 <__ram_exceptions_end+0xfabfd254>
 4001b48:	d9002c17 	ldw	r4,176(sp)
 4001b4c:	d9801e04 	addi	r6,sp,120
 4001b50:	b80b883a 	mov	r5,r23
 4001b54:	40075240 	call	4007524 <__sprint_r>
 4001b58:	103e5d26 	beq	r2,zero,40014d0 <__ram_exceptions_end+0xfabfd344>
 4001b5c:	003cad06 	br	4000e14 <__ram_exceptions_end+0xfabfcc88>
 4001b60:	d9002c17 	ldw	r4,176(sp)
 4001b64:	d9801e04 	addi	r6,sp,120
 4001b68:	b80b883a 	mov	r5,r23
 4001b6c:	40075240 	call	4007524 <__sprint_r>
 4001b70:	103ca81e 	bne	r2,zero,4000e14 <__ram_exceptions_end+0xfabfcc88>
 4001b74:	d8c02017 	ldw	r3,128(sp)
 4001b78:	da000404 	addi	r8,sp,16
 4001b7c:	003e0b06 	br	40013ac <__ram_exceptions_end+0xfabfd220>
 4001b80:	d9002c17 	ldw	r4,176(sp)
 4001b84:	d9801e04 	addi	r6,sp,120
 4001b88:	b80b883a 	mov	r5,r23
 4001b8c:	40075240 	call	4007524 <__sprint_r>
 4001b90:	103ca01e 	bne	r2,zero,4000e14 <__ram_exceptions_end+0xfabfcc88>
 4001b94:	d8c02017 	ldw	r3,128(sp)
 4001b98:	da000404 	addi	r8,sp,16
 4001b9c:	003dbd06 	br	4001294 <__ram_exceptions_end+0xfabfd108>
 4001ba0:	d9002c17 	ldw	r4,176(sp)
 4001ba4:	d9801e04 	addi	r6,sp,120
 4001ba8:	b80b883a 	mov	r5,r23
 4001bac:	40075240 	call	4007524 <__sprint_r>
 4001bb0:	103c981e 	bne	r2,zero,4000e14 <__ram_exceptions_end+0xfabfcc88>
 4001bb4:	d8c02017 	ldw	r3,128(sp)
 4001bb8:	da000404 	addi	r8,sp,16
 4001bbc:	003dc306 	br	40012cc <__ram_exceptions_end+0xfabfd140>
 4001bc0:	d8802917 	ldw	r2,164(sp)
 4001bc4:	d8002785 	stb	zero,158(sp)
 4001bc8:	103f0616 	blt	r2,zero,40017e4 <__ram_exceptions_end+0xfabfd658>
 4001bcc:	00ffdfc4 	movi	r3,-129
 4001bd0:	9d84b03a 	or	r2,r19,r22
 4001bd4:	90e4703a 	and	r18,r18,r3
 4001bd8:	103c6b26 	beq	r2,zero,4000d88 <__ram_exceptions_end+0xfabfcbfc>
 4001bdc:	0039883a 	mov	fp,zero
 4001be0:	003e7406 	br	40015b4 <__ram_exceptions_end+0xfabfd428>
 4001be4:	9080040c 	andi	r2,r18,16
 4001be8:	1001b326 	beq	r2,zero,40022b8 <___vfprintf_internal_r+0x18ac>
 4001bec:	d9002d17 	ldw	r4,180(sp)
 4001bf0:	d9402917 	ldw	r5,164(sp)
 4001bf4:	d8002785 	stb	zero,158(sp)
 4001bf8:	20800104 	addi	r2,r4,4
 4001bfc:	24c00017 	ldw	r19,0(r4)
 4001c00:	002d883a 	mov	r22,zero
 4001c04:	2801b516 	blt	r5,zero,40022dc <___vfprintf_internal_r+0x18d0>
 4001c08:	00ffdfc4 	movi	r3,-129
 4001c0c:	d8802d15 	stw	r2,180(sp)
 4001c10:	90e4703a 	and	r18,r18,r3
 4001c14:	983d2726 	beq	r19,zero,40010b4 <__ram_exceptions_end+0xfabfcf28>
 4001c18:	0039883a 	mov	fp,zero
 4001c1c:	003d2a06 	br	40010c8 <__ram_exceptions_end+0xfabfcf3c>
 4001c20:	dc402617 	ldw	r17,152(sp)
 4001c24:	0441d30e 	bge	zero,r17,4002374 <___vfprintf_internal_r+0x1968>
 4001c28:	dc403217 	ldw	r17,200(sp)
 4001c2c:	d8803317 	ldw	r2,204(sp)
 4001c30:	1440010e 	bge	r2,r17,4001c38 <___vfprintf_internal_r+0x122c>
 4001c34:	1023883a 	mov	r17,r2
 4001c38:	04400a0e 	bge	zero,r17,4001c64 <___vfprintf_internal_r+0x1258>
 4001c3c:	d8801f17 	ldw	r2,124(sp)
 4001c40:	1c47883a 	add	r3,r3,r17
 4001c44:	44000015 	stw	r16,0(r8)
 4001c48:	10800044 	addi	r2,r2,1
 4001c4c:	44400115 	stw	r17,4(r8)
 4001c50:	d8c02015 	stw	r3,128(sp)
 4001c54:	d8801f15 	stw	r2,124(sp)
 4001c58:	010001c4 	movi	r4,7
 4001c5c:	20826516 	blt	r4,r2,40025f4 <___vfprintf_internal_r+0x1be8>
 4001c60:	42000204 	addi	r8,r8,8
 4001c64:	88026116 	blt	r17,zero,40025ec <___vfprintf_internal_r+0x1be0>
 4001c68:	d9003217 	ldw	r4,200(sp)
 4001c6c:	2463c83a 	sub	r17,r4,r17
 4001c70:	04407b0e 	bge	zero,r17,4001e60 <___vfprintf_internal_r+0x1454>
 4001c74:	05800404 	movi	r22,16
 4001c78:	d8801f17 	ldw	r2,124(sp)
 4001c7c:	b4419d0e 	bge	r22,r17,40022f4 <___vfprintf_internal_r+0x18e8>
 4001c80:	01010074 	movhi	r4,1025
 4001c84:	213eb284 	addi	r4,r4,-1334
 4001c88:	d9002b15 	stw	r4,172(sp)
 4001c8c:	070001c4 	movi	fp,7
 4001c90:	dcc02c17 	ldw	r19,176(sp)
 4001c94:	00000306 	br	4001ca4 <___vfprintf_internal_r+0x1298>
 4001c98:	42000204 	addi	r8,r8,8
 4001c9c:	8c7ffc04 	addi	r17,r17,-16
 4001ca0:	b441970e 	bge	r22,r17,4002300 <___vfprintf_internal_r+0x18f4>
 4001ca4:	18c00404 	addi	r3,r3,16
 4001ca8:	10800044 	addi	r2,r2,1
 4001cac:	45000015 	stw	r20,0(r8)
 4001cb0:	45800115 	stw	r22,4(r8)
 4001cb4:	d8c02015 	stw	r3,128(sp)
 4001cb8:	d8801f15 	stw	r2,124(sp)
 4001cbc:	e0bff60e 	bge	fp,r2,4001c98 <__ram_exceptions_end+0xfabfdb0c>
 4001cc0:	d9801e04 	addi	r6,sp,120
 4001cc4:	b80b883a 	mov	r5,r23
 4001cc8:	9809883a 	mov	r4,r19
 4001ccc:	40075240 	call	4007524 <__sprint_r>
 4001cd0:	103c501e 	bne	r2,zero,4000e14 <__ram_exceptions_end+0xfabfcc88>
 4001cd4:	d8c02017 	ldw	r3,128(sp)
 4001cd8:	d8801f17 	ldw	r2,124(sp)
 4001cdc:	da000404 	addi	r8,sp,16
 4001ce0:	003fee06 	br	4001c9c <__ram_exceptions_end+0xfabfdb10>
 4001ce4:	d9002c17 	ldw	r4,176(sp)
 4001ce8:	d9801e04 	addi	r6,sp,120
 4001cec:	b80b883a 	mov	r5,r23
 4001cf0:	40075240 	call	4007524 <__sprint_r>
 4001cf4:	103c471e 	bne	r2,zero,4000e14 <__ram_exceptions_end+0xfabfcc88>
 4001cf8:	d8c02017 	ldw	r3,128(sp)
 4001cfc:	df002787 	ldb	fp,158(sp)
 4001d00:	da000404 	addi	r8,sp,16
 4001d04:	003d5606 	br	4001260 <__ram_exceptions_end+0xfabfd0d4>
 4001d08:	9080040c 	andi	r2,r18,16
 4001d0c:	10016126 	beq	r2,zero,4002294 <___vfprintf_internal_r+0x1888>
 4001d10:	d8802d17 	ldw	r2,180(sp)
 4001d14:	14c00017 	ldw	r19,0(r2)
 4001d18:	10800104 	addi	r2,r2,4
 4001d1c:	d8802d15 	stw	r2,180(sp)
 4001d20:	982dd7fa 	srai	r22,r19,31
 4001d24:	b005883a 	mov	r2,r22
 4001d28:	003c8206 	br	4000f34 <__ram_exceptions_end+0xfabfcda8>
 4001d2c:	9080040c 	andi	r2,r18,16
 4001d30:	10003526 	beq	r2,zero,4001e08 <___vfprintf_internal_r+0x13fc>
 4001d34:	d9402d17 	ldw	r5,180(sp)
 4001d38:	d8c02917 	ldw	r3,164(sp)
 4001d3c:	d8002785 	stb	zero,158(sp)
 4001d40:	28800104 	addi	r2,r5,4
 4001d44:	2cc00017 	ldw	r19,0(r5)
 4001d48:	002d883a 	mov	r22,zero
 4001d4c:	18003716 	blt	r3,zero,4001e2c <___vfprintf_internal_r+0x1420>
 4001d50:	00ffdfc4 	movi	r3,-129
 4001d54:	d8802d15 	stw	r2,180(sp)
 4001d58:	90e4703a 	and	r18,r18,r3
 4001d5c:	0039883a 	mov	fp,zero
 4001d60:	983df326 	beq	r19,zero,4001530 <__ram_exceptions_end+0xfabfd3a4>
 4001d64:	00800244 	movi	r2,9
 4001d68:	14fc7b36 	bltu	r2,r19,4000f58 <__ram_exceptions_end+0xfabfcdcc>
 4001d6c:	d8c02817 	ldw	r3,160(sp)
 4001d70:	dc001dc4 	addi	r16,sp,119
 4001d74:	9cc00c04 	addi	r19,r19,48
 4001d78:	1c07c83a 	sub	r3,r3,r16
 4001d7c:	dcc01dc5 	stb	r19,119(sp)
 4001d80:	d8c02e15 	stw	r3,184(sp)
 4001d84:	003ce806 	br	4001128 <__ram_exceptions_end+0xfabfcf9c>
 4001d88:	d8803317 	ldw	r2,204(sp)
 4001d8c:	143fffc4 	addi	r16,r2,-1
 4001d90:	043f4d0e 	bge	zero,r16,4001ac8 <__ram_exceptions_end+0xfabfd93c>
 4001d94:	07000404 	movi	fp,16
 4001d98:	e400810e 	bge	fp,r16,4001fa0 <___vfprintf_internal_r+0x1594>
 4001d9c:	01410074 	movhi	r5,1025
 4001da0:	297eb284 	addi	r5,r5,-1334
 4001da4:	d9402b15 	stw	r5,172(sp)
 4001da8:	01c001c4 	movi	r7,7
 4001dac:	dcc02c17 	ldw	r19,176(sp)
 4001db0:	00000306 	br	4001dc0 <___vfprintf_internal_r+0x13b4>
 4001db4:	b5800204 	addi	r22,r22,8
 4001db8:	843ffc04 	addi	r16,r16,-16
 4001dbc:	e4007b0e 	bge	fp,r16,4001fac <___vfprintf_internal_r+0x15a0>
 4001dc0:	18c00404 	addi	r3,r3,16
 4001dc4:	8c400044 	addi	r17,r17,1
 4001dc8:	b5000015 	stw	r20,0(r22)
 4001dcc:	b7000115 	stw	fp,4(r22)
 4001dd0:	d8c02015 	stw	r3,128(sp)
 4001dd4:	dc401f15 	stw	r17,124(sp)
 4001dd8:	3c7ff60e 	bge	r7,r17,4001db4 <__ram_exceptions_end+0xfabfdc28>
 4001ddc:	d9801e04 	addi	r6,sp,120
 4001de0:	b80b883a 	mov	r5,r23
 4001de4:	9809883a 	mov	r4,r19
 4001de8:	d9c03c15 	stw	r7,240(sp)
 4001dec:	40075240 	call	4007524 <__sprint_r>
 4001df0:	d9c03c17 	ldw	r7,240(sp)
 4001df4:	103c071e 	bne	r2,zero,4000e14 <__ram_exceptions_end+0xfabfcc88>
 4001df8:	d8c02017 	ldw	r3,128(sp)
 4001dfc:	dc401f17 	ldw	r17,124(sp)
 4001e00:	dd800404 	addi	r22,sp,16
 4001e04:	003fec06 	br	4001db8 <__ram_exceptions_end+0xfabfdc2c>
 4001e08:	9080100c 	andi	r2,r18,64
 4001e0c:	d8002785 	stb	zero,158(sp)
 4001e10:	10010e26 	beq	r2,zero,400224c <___vfprintf_internal_r+0x1840>
 4001e14:	d9002d17 	ldw	r4,180(sp)
 4001e18:	d9402917 	ldw	r5,164(sp)
 4001e1c:	002d883a 	mov	r22,zero
 4001e20:	20800104 	addi	r2,r4,4
 4001e24:	24c0000b 	ldhu	r19,0(r4)
 4001e28:	283fc90e 	bge	r5,zero,4001d50 <__ram_exceptions_end+0xfabfdbc4>
 4001e2c:	d8802d15 	stw	r2,180(sp)
 4001e30:	0039883a 	mov	fp,zero
 4001e34:	9d84b03a 	or	r2,r19,r22
 4001e38:	103c461e 	bne	r2,zero,4000f54 <__ram_exceptions_end+0xfabfcdc8>
 4001e3c:	00800044 	movi	r2,1
 4001e40:	003e6c06 	br	40017f4 <__ram_exceptions_end+0xfabfd668>
 4001e44:	d9002c17 	ldw	r4,176(sp)
 4001e48:	d9801e04 	addi	r6,sp,120
 4001e4c:	b80b883a 	mov	r5,r23
 4001e50:	40075240 	call	4007524 <__sprint_r>
 4001e54:	103bef1e 	bne	r2,zero,4000e14 <__ram_exceptions_end+0xfabfcc88>
 4001e58:	d8c02017 	ldw	r3,128(sp)
 4001e5c:	da000404 	addi	r8,sp,16
 4001e60:	d9003217 	ldw	r4,200(sp)
 4001e64:	d8802617 	ldw	r2,152(sp)
 4001e68:	d9403317 	ldw	r5,204(sp)
 4001e6c:	8123883a 	add	r17,r16,r4
 4001e70:	11400216 	blt	r2,r5,4001e7c <___vfprintf_internal_r+0x1470>
 4001e74:	9100004c 	andi	r4,r18,1
 4001e78:	20000d26 	beq	r4,zero,4001eb0 <___vfprintf_internal_r+0x14a4>
 4001e7c:	d9003717 	ldw	r4,220(sp)
 4001e80:	d9403417 	ldw	r5,208(sp)
 4001e84:	1907883a 	add	r3,r3,r4
 4001e88:	d9001f17 	ldw	r4,124(sp)
 4001e8c:	41400015 	stw	r5,0(r8)
 4001e90:	d9403717 	ldw	r5,220(sp)
 4001e94:	21000044 	addi	r4,r4,1
 4001e98:	d8c02015 	stw	r3,128(sp)
 4001e9c:	41400115 	stw	r5,4(r8)
 4001ea0:	d9001f15 	stw	r4,124(sp)
 4001ea4:	014001c4 	movi	r5,7
 4001ea8:	2901e816 	blt	r5,r4,400264c <___vfprintf_internal_r+0x1c40>
 4001eac:	42000204 	addi	r8,r8,8
 4001eb0:	d9003317 	ldw	r4,204(sp)
 4001eb4:	8121883a 	add	r16,r16,r4
 4001eb8:	2085c83a 	sub	r2,r4,r2
 4001ebc:	8461c83a 	sub	r16,r16,r17
 4001ec0:	1400010e 	bge	r2,r16,4001ec8 <___vfprintf_internal_r+0x14bc>
 4001ec4:	1021883a 	mov	r16,r2
 4001ec8:	04000a0e 	bge	zero,r16,4001ef4 <___vfprintf_internal_r+0x14e8>
 4001ecc:	d9001f17 	ldw	r4,124(sp)
 4001ed0:	1c07883a 	add	r3,r3,r16
 4001ed4:	44400015 	stw	r17,0(r8)
 4001ed8:	21000044 	addi	r4,r4,1
 4001edc:	44000115 	stw	r16,4(r8)
 4001ee0:	d8c02015 	stw	r3,128(sp)
 4001ee4:	d9001f15 	stw	r4,124(sp)
 4001ee8:	014001c4 	movi	r5,7
 4001eec:	2901fb16 	blt	r5,r4,40026dc <___vfprintf_internal_r+0x1cd0>
 4001ef0:	42000204 	addi	r8,r8,8
 4001ef4:	8001f716 	blt	r16,zero,40026d4 <___vfprintf_internal_r+0x1cc8>
 4001ef8:	1421c83a 	sub	r16,r2,r16
 4001efc:	043d380e 	bge	zero,r16,40013e0 <__ram_exceptions_end+0xfabfd254>
 4001f00:	04400404 	movi	r17,16
 4001f04:	d8801f17 	ldw	r2,124(sp)
 4001f08:	8c3efb0e 	bge	r17,r16,4001af8 <__ram_exceptions_end+0xfabfd96c>
 4001f0c:	01410074 	movhi	r5,1025
 4001f10:	297eb284 	addi	r5,r5,-1334
 4001f14:	d9402b15 	stw	r5,172(sp)
 4001f18:	058001c4 	movi	r22,7
 4001f1c:	dcc02c17 	ldw	r19,176(sp)
 4001f20:	00000306 	br	4001f30 <___vfprintf_internal_r+0x1524>
 4001f24:	42000204 	addi	r8,r8,8
 4001f28:	843ffc04 	addi	r16,r16,-16
 4001f2c:	8c3ef50e 	bge	r17,r16,4001b04 <__ram_exceptions_end+0xfabfd978>
 4001f30:	18c00404 	addi	r3,r3,16
 4001f34:	10800044 	addi	r2,r2,1
 4001f38:	45000015 	stw	r20,0(r8)
 4001f3c:	44400115 	stw	r17,4(r8)
 4001f40:	d8c02015 	stw	r3,128(sp)
 4001f44:	d8801f15 	stw	r2,124(sp)
 4001f48:	b0bff60e 	bge	r22,r2,4001f24 <__ram_exceptions_end+0xfabfdd98>
 4001f4c:	d9801e04 	addi	r6,sp,120
 4001f50:	b80b883a 	mov	r5,r23
 4001f54:	9809883a 	mov	r4,r19
 4001f58:	40075240 	call	4007524 <__sprint_r>
 4001f5c:	103bad1e 	bne	r2,zero,4000e14 <__ram_exceptions_end+0xfabfcc88>
 4001f60:	d8c02017 	ldw	r3,128(sp)
 4001f64:	d8801f17 	ldw	r2,124(sp)
 4001f68:	da000404 	addi	r8,sp,16
 4001f6c:	003fee06 	br	4001f28 <__ram_exceptions_end+0xfabfdd9c>
 4001f70:	9088703a 	and	r4,r18,r2
 4001f74:	203eab1e 	bne	r4,zero,4001a24 <__ram_exceptions_end+0xfabfd898>
 4001f78:	dc401f17 	ldw	r17,124(sp)
 4001f7c:	40800115 	stw	r2,4(r8)
 4001f80:	44000015 	stw	r16,0(r8)
 4001f84:	8c400044 	addi	r17,r17,1
 4001f88:	d8c02015 	stw	r3,128(sp)
 4001f8c:	dc401f15 	stw	r17,124(sp)
 4001f90:	008001c4 	movi	r2,7
 4001f94:	14400e16 	blt	r2,r17,4001fd0 <___vfprintf_internal_r+0x15c4>
 4001f98:	45800204 	addi	r22,r8,8
 4001f9c:	003eca06 	br	4001ac8 <__ram_exceptions_end+0xfabfd93c>
 4001fa0:	01010074 	movhi	r4,1025
 4001fa4:	213eb284 	addi	r4,r4,-1334
 4001fa8:	d9002b15 	stw	r4,172(sp)
 4001fac:	d8802b17 	ldw	r2,172(sp)
 4001fb0:	1c07883a 	add	r3,r3,r16
 4001fb4:	8c400044 	addi	r17,r17,1
 4001fb8:	b0800015 	stw	r2,0(r22)
 4001fbc:	b4000115 	stw	r16,4(r22)
 4001fc0:	d8c02015 	stw	r3,128(sp)
 4001fc4:	dc401f15 	stw	r17,124(sp)
 4001fc8:	008001c4 	movi	r2,7
 4001fcc:	147ebd0e 	bge	r2,r17,4001ac4 <__ram_exceptions_end+0xfabfd938>
 4001fd0:	d9002c17 	ldw	r4,176(sp)
 4001fd4:	d9801e04 	addi	r6,sp,120
 4001fd8:	b80b883a 	mov	r5,r23
 4001fdc:	40075240 	call	4007524 <__sprint_r>
 4001fe0:	103b8c1e 	bne	r2,zero,4000e14 <__ram_exceptions_end+0xfabfcc88>
 4001fe4:	d8c02017 	ldw	r3,128(sp)
 4001fe8:	dc401f17 	ldw	r17,124(sp)
 4001fec:	dd800404 	addi	r22,sp,16
 4001ff0:	003eb506 	br	4001ac8 <__ram_exceptions_end+0xfabfd93c>
 4001ff4:	d9002c17 	ldw	r4,176(sp)
 4001ff8:	d9801e04 	addi	r6,sp,120
 4001ffc:	b80b883a 	mov	r5,r23
 4002000:	40075240 	call	4007524 <__sprint_r>
 4002004:	103b831e 	bne	r2,zero,4000e14 <__ram_exceptions_end+0xfabfcc88>
 4002008:	d8c02017 	ldw	r3,128(sp)
 400200c:	dc401f17 	ldw	r17,124(sp)
 4002010:	da000404 	addi	r8,sp,16
 4002014:	003e8d06 	br	4001a4c <__ram_exceptions_end+0xfabfd8c0>
 4002018:	d9002c17 	ldw	r4,176(sp)
 400201c:	d9801e04 	addi	r6,sp,120
 4002020:	b80b883a 	mov	r5,r23
 4002024:	40075240 	call	4007524 <__sprint_r>
 4002028:	103b7a1e 	bne	r2,zero,4000e14 <__ram_exceptions_end+0xfabfcc88>
 400202c:	d8c02017 	ldw	r3,128(sp)
 4002030:	dc401f17 	ldw	r17,124(sp)
 4002034:	dd800404 	addi	r22,sp,16
 4002038:	003e8f06 	br	4001a78 <__ram_exceptions_end+0xfabfd8ec>
 400203c:	0027883a 	mov	r19,zero
 4002040:	003f4a06 	br	4001d6c <__ram_exceptions_end+0xfabfdbe0>
 4002044:	d9002c17 	ldw	r4,176(sp)
 4002048:	d9801e04 	addi	r6,sp,120
 400204c:	b80b883a 	mov	r5,r23
 4002050:	40075240 	call	4007524 <__sprint_r>
 4002054:	103b6f1e 	bne	r2,zero,4000e14 <__ram_exceptions_end+0xfabfcc88>
 4002058:	d8c02017 	ldw	r3,128(sp)
 400205c:	da000404 	addi	r8,sp,16
 4002060:	003c9d06 	br	40012d8 <__ram_exceptions_end+0xfabfd14c>
 4002064:	04e7c83a 	sub	r19,zero,r19
 4002068:	9804c03a 	cmpne	r2,r19,zero
 400206c:	05adc83a 	sub	r22,zero,r22
 4002070:	b0adc83a 	sub	r22,r22,r2
 4002074:	d8802917 	ldw	r2,164(sp)
 4002078:	07000b44 	movi	fp,45
 400207c:	df002785 	stb	fp,158(sp)
 4002080:	10017b16 	blt	r2,zero,4002670 <___vfprintf_internal_r+0x1c64>
 4002084:	00bfdfc4 	movi	r2,-129
 4002088:	90a4703a 	and	r18,r18,r2
 400208c:	003bb106 	br	4000f54 <__ram_exceptions_end+0xfabfcdc8>
 4002090:	d9003617 	ldw	r4,216(sp)
 4002094:	d9403817 	ldw	r5,224(sp)
 4002098:	da003d15 	stw	r8,244(sp)
 400209c:	40070b00 	call	40070b0 <__fpclassifyd>
 40020a0:	da003d17 	ldw	r8,244(sp)
 40020a4:	1000f026 	beq	r2,zero,4002468 <___vfprintf_internal_r+0x1a5c>
 40020a8:	d9002917 	ldw	r4,164(sp)
 40020ac:	05bff7c4 	movi	r22,-33
 40020b0:	00bfffc4 	movi	r2,-1
 40020b4:	8dac703a 	and	r22,r17,r22
 40020b8:	20820026 	beq	r4,r2,40028bc <___vfprintf_internal_r+0x1eb0>
 40020bc:	008011c4 	movi	r2,71
 40020c0:	b081f726 	beq	r22,r2,40028a0 <___vfprintf_internal_r+0x1e94>
 40020c4:	d9003817 	ldw	r4,224(sp)
 40020c8:	90c04014 	ori	r3,r18,256
 40020cc:	d8c02b15 	stw	r3,172(sp)
 40020d0:	20021516 	blt	r4,zero,4002928 <___vfprintf_internal_r+0x1f1c>
 40020d4:	dcc03817 	ldw	r19,224(sp)
 40020d8:	d8002a05 	stb	zero,168(sp)
 40020dc:	00801984 	movi	r2,102
 40020e0:	8881f926 	beq	r17,r2,40028c8 <___vfprintf_internal_r+0x1ebc>
 40020e4:	00801184 	movi	r2,70
 40020e8:	88821c26 	beq	r17,r2,400295c <___vfprintf_internal_r+0x1f50>
 40020ec:	00801144 	movi	r2,69
 40020f0:	b081ef26 	beq	r22,r2,40028b0 <___vfprintf_internal_r+0x1ea4>
 40020f4:	d8c02917 	ldw	r3,164(sp)
 40020f8:	d8802104 	addi	r2,sp,132
 40020fc:	d8800315 	stw	r2,12(sp)
 4002100:	d9403617 	ldw	r5,216(sp)
 4002104:	d8802504 	addi	r2,sp,148
 4002108:	d9002c17 	ldw	r4,176(sp)
 400210c:	d8800215 	stw	r2,8(sp)
 4002110:	d8802604 	addi	r2,sp,152
 4002114:	d8c00015 	stw	r3,0(sp)
 4002118:	d8800115 	stw	r2,4(sp)
 400211c:	01c00084 	movi	r7,2
 4002120:	980d883a 	mov	r6,r19
 4002124:	d8c03c15 	stw	r3,240(sp)
 4002128:	da003d15 	stw	r8,244(sp)
 400212c:	40030300 	call	4003030 <_dtoa_r>
 4002130:	1021883a 	mov	r16,r2
 4002134:	008019c4 	movi	r2,103
 4002138:	d8c03c17 	ldw	r3,240(sp)
 400213c:	da003d17 	ldw	r8,244(sp)
 4002140:	88817126 	beq	r17,r2,4002708 <___vfprintf_internal_r+0x1cfc>
 4002144:	008011c4 	movi	r2,71
 4002148:	88829226 	beq	r17,r2,4002b94 <___vfprintf_internal_r+0x2188>
 400214c:	80f9883a 	add	fp,r16,r3
 4002150:	d9003617 	ldw	r4,216(sp)
 4002154:	000d883a 	mov	r6,zero
 4002158:	000f883a 	mov	r7,zero
 400215c:	980b883a 	mov	r5,r19
 4002160:	da003d15 	stw	r8,244(sp)
 4002164:	400bb640 	call	400bb64 <__eqdf2>
 4002168:	da003d17 	ldw	r8,244(sp)
 400216c:	10018d26 	beq	r2,zero,40027a4 <___vfprintf_internal_r+0x1d98>
 4002170:	d8802117 	ldw	r2,132(sp)
 4002174:	1700062e 	bgeu	r2,fp,4002190 <___vfprintf_internal_r+0x1784>
 4002178:	01000c04 	movi	r4,48
 400217c:	10c00044 	addi	r3,r2,1
 4002180:	d8c02115 	stw	r3,132(sp)
 4002184:	11000005 	stb	r4,0(r2)
 4002188:	d8802117 	ldw	r2,132(sp)
 400218c:	173ffb36 	bltu	r2,fp,400217c <__ram_exceptions_end+0xfabfdff0>
 4002190:	1405c83a 	sub	r2,r2,r16
 4002194:	d8803315 	stw	r2,204(sp)
 4002198:	008011c4 	movi	r2,71
 400219c:	b0817626 	beq	r22,r2,4002778 <___vfprintf_internal_r+0x1d6c>
 40021a0:	00801944 	movi	r2,101
 40021a4:	1442810e 	bge	r2,r17,4002bac <___vfprintf_internal_r+0x21a0>
 40021a8:	d8c02617 	ldw	r3,152(sp)
 40021ac:	00801984 	movi	r2,102
 40021b0:	d8c03215 	stw	r3,200(sp)
 40021b4:	8881fe26 	beq	r17,r2,40029b0 <___vfprintf_internal_r+0x1fa4>
 40021b8:	d8c03217 	ldw	r3,200(sp)
 40021bc:	d9003317 	ldw	r4,204(sp)
 40021c0:	1901dd16 	blt	r3,r4,4002938 <___vfprintf_internal_r+0x1f2c>
 40021c4:	9480004c 	andi	r18,r18,1
 40021c8:	90022b1e 	bne	r18,zero,4002a78 <___vfprintf_internal_r+0x206c>
 40021cc:	1805883a 	mov	r2,r3
 40021d0:	18028016 	blt	r3,zero,4002bd4 <___vfprintf_internal_r+0x21c8>
 40021d4:	d8c03217 	ldw	r3,200(sp)
 40021d8:	044019c4 	movi	r17,103
 40021dc:	d8c02e15 	stw	r3,184(sp)
 40021e0:	df002a07 	ldb	fp,168(sp)
 40021e4:	e001531e 	bne	fp,zero,4002734 <___vfprintf_internal_r+0x1d28>
 40021e8:	df002783 	ldbu	fp,158(sp)
 40021ec:	d8802a15 	stw	r2,168(sp)
 40021f0:	dc802b17 	ldw	r18,172(sp)
 40021f4:	d8002915 	stw	zero,164(sp)
 40021f8:	003bd106 	br	4001140 <__ram_exceptions_end+0xfabfcfb4>
 40021fc:	d8802d17 	ldw	r2,180(sp)
 4002200:	d8c02d17 	ldw	r3,180(sp)
 4002204:	d9002d17 	ldw	r4,180(sp)
 4002208:	10800017 	ldw	r2,0(r2)
 400220c:	18c00117 	ldw	r3,4(r3)
 4002210:	21000204 	addi	r4,r4,8
 4002214:	d8803615 	stw	r2,216(sp)
 4002218:	d8c03815 	stw	r3,224(sp)
 400221c:	d9002d15 	stw	r4,180(sp)
 4002220:	003b7506 	br	4000ff8 <__ram_exceptions_end+0xfabfce6c>
 4002224:	ac400007 	ldb	r17,0(r21)
 4002228:	003a5906 	br	4000b90 <__ram_exceptions_end+0xfabfca04>
 400222c:	9080100c 	andi	r2,r18,64
 4002230:	1000a826 	beq	r2,zero,40024d4 <___vfprintf_internal_r+0x1ac8>
 4002234:	d9002d17 	ldw	r4,180(sp)
 4002238:	002d883a 	mov	r22,zero
 400223c:	24c0000b 	ldhu	r19,0(r4)
 4002240:	21000104 	addi	r4,r4,4
 4002244:	d9002d15 	stw	r4,180(sp)
 4002248:	003ccb06 	br	4001578 <__ram_exceptions_end+0xfabfd3ec>
 400224c:	d8c02d17 	ldw	r3,180(sp)
 4002250:	d9002917 	ldw	r4,164(sp)
 4002254:	002d883a 	mov	r22,zero
 4002258:	18800104 	addi	r2,r3,4
 400225c:	1cc00017 	ldw	r19,0(r3)
 4002260:	203ebb0e 	bge	r4,zero,4001d50 <__ram_exceptions_end+0xfabfdbc4>
 4002264:	003ef106 	br	4001e2c <__ram_exceptions_end+0xfabfdca0>
 4002268:	9080040c 	andi	r2,r18,16
 400226c:	1000921e 	bne	r2,zero,40024b8 <___vfprintf_internal_r+0x1aac>
 4002270:	9480100c 	andi	r18,r18,64
 4002274:	90013926 	beq	r18,zero,400275c <___vfprintf_internal_r+0x1d50>
 4002278:	d9002d17 	ldw	r4,180(sp)
 400227c:	d9402f17 	ldw	r5,188(sp)
 4002280:	20800017 	ldw	r2,0(r4)
 4002284:	21000104 	addi	r4,r4,4
 4002288:	d9002d15 	stw	r4,180(sp)
 400228c:	1140000d 	sth	r5,0(r2)
 4002290:	003a1606 	br	4000aec <__ram_exceptions_end+0xfabfc960>
 4002294:	9080100c 	andi	r2,r18,64
 4002298:	10008026 	beq	r2,zero,400249c <___vfprintf_internal_r+0x1a90>
 400229c:	d8c02d17 	ldw	r3,180(sp)
 40022a0:	1cc0000f 	ldh	r19,0(r3)
 40022a4:	18c00104 	addi	r3,r3,4
 40022a8:	d8c02d15 	stw	r3,180(sp)
 40022ac:	982dd7fa 	srai	r22,r19,31
 40022b0:	b005883a 	mov	r2,r22
 40022b4:	003b1f06 	br	4000f34 <__ram_exceptions_end+0xfabfcda8>
 40022b8:	9080100c 	andi	r2,r18,64
 40022bc:	d8002785 	stb	zero,158(sp)
 40022c0:	10008a1e 	bne	r2,zero,40024ec <___vfprintf_internal_r+0x1ae0>
 40022c4:	d9402d17 	ldw	r5,180(sp)
 40022c8:	d8c02917 	ldw	r3,164(sp)
 40022cc:	002d883a 	mov	r22,zero
 40022d0:	28800104 	addi	r2,r5,4
 40022d4:	2cc00017 	ldw	r19,0(r5)
 40022d8:	183e4b0e 	bge	r3,zero,4001c08 <__ram_exceptions_end+0xfabfda7c>
 40022dc:	9d86b03a 	or	r3,r19,r22
 40022e0:	d8802d15 	stw	r2,180(sp)
 40022e4:	183e4c1e 	bne	r3,zero,4001c18 <__ram_exceptions_end+0xfabfda8c>
 40022e8:	0039883a 	mov	fp,zero
 40022ec:	0005883a 	mov	r2,zero
 40022f0:	003d4006 	br	40017f4 <__ram_exceptions_end+0xfabfd668>
 40022f4:	01410074 	movhi	r5,1025
 40022f8:	297eb284 	addi	r5,r5,-1334
 40022fc:	d9402b15 	stw	r5,172(sp)
 4002300:	d9402b17 	ldw	r5,172(sp)
 4002304:	1c47883a 	add	r3,r3,r17
 4002308:	10800044 	addi	r2,r2,1
 400230c:	41400015 	stw	r5,0(r8)
 4002310:	44400115 	stw	r17,4(r8)
 4002314:	d8c02015 	stw	r3,128(sp)
 4002318:	d8801f15 	stw	r2,124(sp)
 400231c:	010001c4 	movi	r4,7
 4002320:	20bec816 	blt	r4,r2,4001e44 <__ram_exceptions_end+0xfabfdcb8>
 4002324:	42000204 	addi	r8,r8,8
 4002328:	003ecd06 	br	4001e60 <__ram_exceptions_end+0xfabfdcd4>
 400232c:	d9002917 	ldw	r4,164(sp)
 4002330:	d8002785 	stb	zero,158(sp)
 4002334:	203d2d16 	blt	r4,zero,40017ec <__ram_exceptions_end+0xfabfd660>
 4002338:	00bfdfc4 	movi	r2,-129
 400233c:	90a4703a 	and	r18,r18,r2
 4002340:	003a9106 	br	4000d88 <__ram_exceptions_end+0xfabfcbfc>
 4002344:	01010074 	movhi	r4,1025
 4002348:	213eb284 	addi	r4,r4,-1334
 400234c:	d9002b15 	stw	r4,172(sp)
 4002350:	003c0c06 	br	4001384 <__ram_exceptions_end+0xfabfd1f8>
 4002354:	d9002c17 	ldw	r4,176(sp)
 4002358:	d9801e04 	addi	r6,sp,120
 400235c:	b80b883a 	mov	r5,r23
 4002360:	40075240 	call	4007524 <__sprint_r>
 4002364:	103aab1e 	bne	r2,zero,4000e14 <__ram_exceptions_end+0xfabfcc88>
 4002368:	d8c02017 	ldw	r3,128(sp)
 400236c:	da000404 	addi	r8,sp,16
 4002370:	003d4106 	br	4001878 <__ram_exceptions_end+0xfabfd6ec>
 4002374:	d8801f17 	ldw	r2,124(sp)
 4002378:	01410074 	movhi	r5,1025
 400237c:	01000044 	movi	r4,1
 4002380:	18c00044 	addi	r3,r3,1
 4002384:	10800044 	addi	r2,r2,1
 4002388:	297eb204 	addi	r5,r5,-1336
 400238c:	41000115 	stw	r4,4(r8)
 4002390:	41400015 	stw	r5,0(r8)
 4002394:	d8c02015 	stw	r3,128(sp)
 4002398:	d8801f15 	stw	r2,124(sp)
 400239c:	010001c4 	movi	r4,7
 40023a0:	20805c16 	blt	r4,r2,4002514 <___vfprintf_internal_r+0x1b08>
 40023a4:	42000204 	addi	r8,r8,8
 40023a8:	8800041e 	bne	r17,zero,40023bc <___vfprintf_internal_r+0x19b0>
 40023ac:	d8803317 	ldw	r2,204(sp)
 40023b0:	1000021e 	bne	r2,zero,40023bc <___vfprintf_internal_r+0x19b0>
 40023b4:	9080004c 	andi	r2,r18,1
 40023b8:	103c0926 	beq	r2,zero,40013e0 <__ram_exceptions_end+0xfabfd254>
 40023bc:	d9003717 	ldw	r4,220(sp)
 40023c0:	d8801f17 	ldw	r2,124(sp)
 40023c4:	d9403417 	ldw	r5,208(sp)
 40023c8:	20c7883a 	add	r3,r4,r3
 40023cc:	10800044 	addi	r2,r2,1
 40023d0:	41000115 	stw	r4,4(r8)
 40023d4:	41400015 	stw	r5,0(r8)
 40023d8:	d8c02015 	stw	r3,128(sp)
 40023dc:	d8801f15 	stw	r2,124(sp)
 40023e0:	010001c4 	movi	r4,7
 40023e4:	20812116 	blt	r4,r2,400286c <___vfprintf_internal_r+0x1e60>
 40023e8:	42000204 	addi	r8,r8,8
 40023ec:	0463c83a 	sub	r17,zero,r17
 40023f0:	0440730e 	bge	zero,r17,40025c0 <___vfprintf_internal_r+0x1bb4>
 40023f4:	05800404 	movi	r22,16
 40023f8:	b440860e 	bge	r22,r17,4002614 <___vfprintf_internal_r+0x1c08>
 40023fc:	01410074 	movhi	r5,1025
 4002400:	297eb284 	addi	r5,r5,-1334
 4002404:	d9402b15 	stw	r5,172(sp)
 4002408:	070001c4 	movi	fp,7
 400240c:	dcc02c17 	ldw	r19,176(sp)
 4002410:	00000306 	br	4002420 <___vfprintf_internal_r+0x1a14>
 4002414:	42000204 	addi	r8,r8,8
 4002418:	8c7ffc04 	addi	r17,r17,-16
 400241c:	b440800e 	bge	r22,r17,4002620 <___vfprintf_internal_r+0x1c14>
 4002420:	18c00404 	addi	r3,r3,16
 4002424:	10800044 	addi	r2,r2,1
 4002428:	45000015 	stw	r20,0(r8)
 400242c:	45800115 	stw	r22,4(r8)
 4002430:	d8c02015 	stw	r3,128(sp)
 4002434:	d8801f15 	stw	r2,124(sp)
 4002438:	e0bff60e 	bge	fp,r2,4002414 <__ram_exceptions_end+0xfabfe288>
 400243c:	d9801e04 	addi	r6,sp,120
 4002440:	b80b883a 	mov	r5,r23
 4002444:	9809883a 	mov	r4,r19
 4002448:	40075240 	call	4007524 <__sprint_r>
 400244c:	103a711e 	bne	r2,zero,4000e14 <__ram_exceptions_end+0xfabfcc88>
 4002450:	d8c02017 	ldw	r3,128(sp)
 4002454:	d8801f17 	ldw	r2,124(sp)
 4002458:	da000404 	addi	r8,sp,16
 400245c:	003fee06 	br	4002418 <__ram_exceptions_end+0xfabfe28c>
 4002460:	00bfffc4 	movi	r2,-1
 4002464:	003a6f06 	br	4000e24 <__ram_exceptions_end+0xfabfcc98>
 4002468:	008011c4 	movi	r2,71
 400246c:	1440b816 	blt	r2,r17,4002750 <___vfprintf_internal_r+0x1d44>
 4002470:	04010074 	movhi	r16,1025
 4002474:	843ea404 	addi	r16,r16,-1392
 4002478:	00c000c4 	movi	r3,3
 400247c:	00bfdfc4 	movi	r2,-129
 4002480:	d8c02a15 	stw	r3,168(sp)
 4002484:	90a4703a 	and	r18,r18,r2
 4002488:	df002783 	ldbu	fp,158(sp)
 400248c:	d8c02e15 	stw	r3,184(sp)
 4002490:	d8002915 	stw	zero,164(sp)
 4002494:	d8003215 	stw	zero,200(sp)
 4002498:	003b2906 	br	4001140 <__ram_exceptions_end+0xfabfcfb4>
 400249c:	d9002d17 	ldw	r4,180(sp)
 40024a0:	24c00017 	ldw	r19,0(r4)
 40024a4:	21000104 	addi	r4,r4,4
 40024a8:	d9002d15 	stw	r4,180(sp)
 40024ac:	982dd7fa 	srai	r22,r19,31
 40024b0:	b005883a 	mov	r2,r22
 40024b4:	003a9f06 	br	4000f34 <__ram_exceptions_end+0xfabfcda8>
 40024b8:	d9402d17 	ldw	r5,180(sp)
 40024bc:	d8c02f17 	ldw	r3,188(sp)
 40024c0:	28800017 	ldw	r2,0(r5)
 40024c4:	29400104 	addi	r5,r5,4
 40024c8:	d9402d15 	stw	r5,180(sp)
 40024cc:	10c00015 	stw	r3,0(r2)
 40024d0:	00398606 	br	4000aec <__ram_exceptions_end+0xfabfc960>
 40024d4:	d9402d17 	ldw	r5,180(sp)
 40024d8:	002d883a 	mov	r22,zero
 40024dc:	2cc00017 	ldw	r19,0(r5)
 40024e0:	29400104 	addi	r5,r5,4
 40024e4:	d9402d15 	stw	r5,180(sp)
 40024e8:	003c2306 	br	4001578 <__ram_exceptions_end+0xfabfd3ec>
 40024ec:	d8c02d17 	ldw	r3,180(sp)
 40024f0:	d9002917 	ldw	r4,164(sp)
 40024f4:	002d883a 	mov	r22,zero
 40024f8:	18800104 	addi	r2,r3,4
 40024fc:	1cc0000b 	ldhu	r19,0(r3)
 4002500:	203dc10e 	bge	r4,zero,4001c08 <__ram_exceptions_end+0xfabfda7c>
 4002504:	003f7506 	br	40022dc <__ram_exceptions_end+0xfabfe150>
 4002508:	04010074 	movhi	r16,1025
 400250c:	843ea204 	addi	r16,r16,-1400
 4002510:	003acc06 	br	4001044 <__ram_exceptions_end+0xfabfceb8>
 4002514:	d9002c17 	ldw	r4,176(sp)
 4002518:	d9801e04 	addi	r6,sp,120
 400251c:	b80b883a 	mov	r5,r23
 4002520:	40075240 	call	4007524 <__sprint_r>
 4002524:	103a3b1e 	bne	r2,zero,4000e14 <__ram_exceptions_end+0xfabfcc88>
 4002528:	dc402617 	ldw	r17,152(sp)
 400252c:	d8c02017 	ldw	r3,128(sp)
 4002530:	da000404 	addi	r8,sp,16
 4002534:	003f9c06 	br	40023a8 <__ram_exceptions_end+0xfabfe21c>
 4002538:	ac400043 	ldbu	r17,1(r21)
 400253c:	94800814 	ori	r18,r18,32
 4002540:	ad400044 	addi	r21,r21,1
 4002544:	8c403fcc 	andi	r17,r17,255
 4002548:	8c40201c 	xori	r17,r17,128
 400254c:	8c7fe004 	addi	r17,r17,-128
 4002550:	00398f06 	br	4000b90 <__ram_exceptions_end+0xfabfca04>
 4002554:	d8c02d15 	stw	r3,180(sp)
 4002558:	0039883a 	mov	fp,zero
 400255c:	003e3506 	br	4001e34 <__ram_exceptions_end+0xfabfdca8>
 4002560:	d9002c17 	ldw	r4,176(sp)
 4002564:	d9801e04 	addi	r6,sp,120
 4002568:	b80b883a 	mov	r5,r23
 400256c:	40075240 	call	4007524 <__sprint_r>
 4002570:	103a281e 	bne	r2,zero,4000e14 <__ram_exceptions_end+0xfabfcc88>
 4002574:	d8c02017 	ldw	r3,128(sp)
 4002578:	da000404 	addi	r8,sp,16
 400257c:	003cd006 	br	40018c0 <__ram_exceptions_end+0xfabfd734>
 4002580:	8009883a 	mov	r4,r16
 4002584:	da003d15 	stw	r8,244(sp)
 4002588:	40073900 	call	4007390 <strlen>
 400258c:	d8802e15 	stw	r2,184(sp)
 4002590:	da003d17 	ldw	r8,244(sp)
 4002594:	103c340e 	bge	r2,zero,4001668 <__ram_exceptions_end+0xfabfd4dc>
 4002598:	0005883a 	mov	r2,zero
 400259c:	003c3206 	br	4001668 <__ram_exceptions_end+0xfabfd4dc>
 40025a0:	d9002c17 	ldw	r4,176(sp)
 40025a4:	d9801e04 	addi	r6,sp,120
 40025a8:	b80b883a 	mov	r5,r23
 40025ac:	40075240 	call	4007524 <__sprint_r>
 40025b0:	103a181e 	bne	r2,zero,4000e14 <__ram_exceptions_end+0xfabfcc88>
 40025b4:	d8c02017 	ldw	r3,128(sp)
 40025b8:	d8801f17 	ldw	r2,124(sp)
 40025bc:	da000404 	addi	r8,sp,16
 40025c0:	d9403317 	ldw	r5,204(sp)
 40025c4:	10800044 	addi	r2,r2,1
 40025c8:	44000015 	stw	r16,0(r8)
 40025cc:	28c7883a 	add	r3,r5,r3
 40025d0:	003b7d06 	br	40013c8 <__ram_exceptions_end+0xfabfd23c>
 40025d4:	01010074 	movhi	r4,1025
 40025d8:	213eb684 	addi	r4,r4,-1318
 40025dc:	d9003515 	stw	r4,212(sp)
 40025e0:	003b1406 	br	4001234 <__ram_exceptions_end+0xfabfd0a8>
 40025e4:	013fffc4 	movi	r4,-1
 40025e8:	003a3506 	br	4000ec0 <__ram_exceptions_end+0xfabfcd34>
 40025ec:	0023883a 	mov	r17,zero
 40025f0:	003d9d06 	br	4001c68 <__ram_exceptions_end+0xfabfdadc>
 40025f4:	d9002c17 	ldw	r4,176(sp)
 40025f8:	d9801e04 	addi	r6,sp,120
 40025fc:	b80b883a 	mov	r5,r23
 4002600:	40075240 	call	4007524 <__sprint_r>
 4002604:	103a031e 	bne	r2,zero,4000e14 <__ram_exceptions_end+0xfabfcc88>
 4002608:	d8c02017 	ldw	r3,128(sp)
 400260c:	da000404 	addi	r8,sp,16
 4002610:	003d9406 	br	4001c64 <__ram_exceptions_end+0xfabfdad8>
 4002614:	01010074 	movhi	r4,1025
 4002618:	213eb284 	addi	r4,r4,-1334
 400261c:	d9002b15 	stw	r4,172(sp)
 4002620:	d9002b17 	ldw	r4,172(sp)
 4002624:	1c47883a 	add	r3,r3,r17
 4002628:	10800044 	addi	r2,r2,1
 400262c:	41000015 	stw	r4,0(r8)
 4002630:	44400115 	stw	r17,4(r8)
 4002634:	d8c02015 	stw	r3,128(sp)
 4002638:	d8801f15 	stw	r2,124(sp)
 400263c:	010001c4 	movi	r4,7
 4002640:	20bfd716 	blt	r4,r2,40025a0 <__ram_exceptions_end+0xfabfe414>
 4002644:	42000204 	addi	r8,r8,8
 4002648:	003fdd06 	br	40025c0 <__ram_exceptions_end+0xfabfe434>
 400264c:	d9002c17 	ldw	r4,176(sp)
 4002650:	d9801e04 	addi	r6,sp,120
 4002654:	b80b883a 	mov	r5,r23
 4002658:	40075240 	call	4007524 <__sprint_r>
 400265c:	1039ed1e 	bne	r2,zero,4000e14 <__ram_exceptions_end+0xfabfcc88>
 4002660:	d8802617 	ldw	r2,152(sp)
 4002664:	d8c02017 	ldw	r3,128(sp)
 4002668:	da000404 	addi	r8,sp,16
 400266c:	003e1006 	br	4001eb0 <__ram_exceptions_end+0xfabfdd24>
 4002670:	00800044 	movi	r2,1
 4002674:	10803fcc 	andi	r2,r2,255
 4002678:	00c00044 	movi	r3,1
 400267c:	10fa3526 	beq	r2,r3,4000f54 <__ram_exceptions_end+0xfabfcdc8>
 4002680:	00c00084 	movi	r3,2
 4002684:	10fbcb26 	beq	r2,r3,40015b4 <__ram_exceptions_end+0xfabfd428>
 4002688:	003a8f06 	br	40010c8 <__ram_exceptions_end+0xfabfcf3c>
 400268c:	01010074 	movhi	r4,1025
 4002690:	213eb684 	addi	r4,r4,-1318
 4002694:	d9003515 	stw	r4,212(sp)
 4002698:	003b7606 	br	4001474 <__ram_exceptions_end+0xfabfd2e8>
 400269c:	d8802917 	ldw	r2,164(sp)
 40026a0:	00c00184 	movi	r3,6
 40026a4:	1880012e 	bgeu	r3,r2,40026ac <___vfprintf_internal_r+0x1ca0>
 40026a8:	1805883a 	mov	r2,r3
 40026ac:	d8802e15 	stw	r2,184(sp)
 40026b0:	1000ef16 	blt	r2,zero,4002a70 <___vfprintf_internal_r+0x2064>
 40026b4:	04010074 	movhi	r16,1025
 40026b8:	d8802a15 	stw	r2,168(sp)
 40026bc:	dcc02d15 	stw	r19,180(sp)
 40026c0:	d8002915 	stw	zero,164(sp)
 40026c4:	d8003215 	stw	zero,200(sp)
 40026c8:	843eb004 	addi	r16,r16,-1344
 40026cc:	0039883a 	mov	fp,zero
 40026d0:	003aa206 	br	400115c <__ram_exceptions_end+0xfabfcfd0>
 40026d4:	0021883a 	mov	r16,zero
 40026d8:	003e0706 	br	4001ef8 <__ram_exceptions_end+0xfabfdd6c>
 40026dc:	d9002c17 	ldw	r4,176(sp)
 40026e0:	d9801e04 	addi	r6,sp,120
 40026e4:	b80b883a 	mov	r5,r23
 40026e8:	40075240 	call	4007524 <__sprint_r>
 40026ec:	1039c91e 	bne	r2,zero,4000e14 <__ram_exceptions_end+0xfabfcc88>
 40026f0:	d8802617 	ldw	r2,152(sp)
 40026f4:	d9403317 	ldw	r5,204(sp)
 40026f8:	d8c02017 	ldw	r3,128(sp)
 40026fc:	da000404 	addi	r8,sp,16
 4002700:	2885c83a 	sub	r2,r5,r2
 4002704:	003dfb06 	br	4001ef4 <__ram_exceptions_end+0xfabfdd68>
 4002708:	9080004c 	andi	r2,r18,1
 400270c:	103e8f1e 	bne	r2,zero,400214c <__ram_exceptions_end+0xfabfdfc0>
 4002710:	d8802117 	ldw	r2,132(sp)
 4002714:	003e9e06 	br	4002190 <__ram_exceptions_end+0xfabfe004>
 4002718:	1025883a 	mov	r18,r2
 400271c:	0039883a 	mov	fp,zero
 4002720:	00800084 	movi	r2,2
 4002724:	003fd306 	br	4002674 <__ram_exceptions_end+0xfabfe4e8>
 4002728:	07000b44 	movi	fp,45
 400272c:	df002785 	stb	fp,158(sp)
 4002730:	003a4006 	br	4001034 <__ram_exceptions_end+0xfabfcea8>
 4002734:	00c00b44 	movi	r3,45
 4002738:	d8c02785 	stb	r3,158(sp)
 400273c:	d8802a15 	stw	r2,168(sp)
 4002740:	dc802b17 	ldw	r18,172(sp)
 4002744:	d8002915 	stw	zero,164(sp)
 4002748:	07000b44 	movi	fp,45
 400274c:	003a8006 	br	4001150 <__ram_exceptions_end+0xfabfcfc4>
 4002750:	04010074 	movhi	r16,1025
 4002754:	843ea504 	addi	r16,r16,-1388
 4002758:	003f4706 	br	4002478 <__ram_exceptions_end+0xfabfe2ec>
 400275c:	d8c02d17 	ldw	r3,180(sp)
 4002760:	d9002f17 	ldw	r4,188(sp)
 4002764:	18800017 	ldw	r2,0(r3)
 4002768:	18c00104 	addi	r3,r3,4
 400276c:	d8c02d15 	stw	r3,180(sp)
 4002770:	11000015 	stw	r4,0(r2)
 4002774:	0038dd06 	br	4000aec <__ram_exceptions_end+0xfabfc960>
 4002778:	dd802617 	ldw	r22,152(sp)
 400277c:	00bfff44 	movi	r2,-3
 4002780:	b0801c16 	blt	r22,r2,40027f4 <___vfprintf_internal_r+0x1de8>
 4002784:	d9402917 	ldw	r5,164(sp)
 4002788:	2d801a16 	blt	r5,r22,40027f4 <___vfprintf_internal_r+0x1de8>
 400278c:	dd803215 	stw	r22,200(sp)
 4002790:	003e8906 	br	40021b8 <__ram_exceptions_end+0xfabfe02c>
 4002794:	01010074 	movhi	r4,1025
 4002798:	213eb284 	addi	r4,r4,-1334
 400279c:	d9002b15 	stw	r4,172(sp)
 40027a0:	003c9106 	br	40019e8 <__ram_exceptions_end+0xfabfd85c>
 40027a4:	e005883a 	mov	r2,fp
 40027a8:	003e7906 	br	4002190 <__ram_exceptions_end+0xfabfe004>
 40027ac:	d9402917 	ldw	r5,164(sp)
 40027b0:	df002783 	ldbu	fp,158(sp)
 40027b4:	dcc02d15 	stw	r19,180(sp)
 40027b8:	d9402a15 	stw	r5,168(sp)
 40027bc:	d9402e15 	stw	r5,184(sp)
 40027c0:	d8002915 	stw	zero,164(sp)
 40027c4:	d8003215 	stw	zero,200(sp)
 40027c8:	003a5d06 	br	4001140 <__ram_exceptions_end+0xfabfcfb4>
 40027cc:	9080004c 	andi	r2,r18,1
 40027d0:	0039883a 	mov	fp,zero
 40027d4:	10000426 	beq	r2,zero,40027e8 <___vfprintf_internal_r+0x1ddc>
 40027d8:	00800c04 	movi	r2,48
 40027dc:	dc001dc4 	addi	r16,sp,119
 40027e0:	d8801dc5 	stb	r2,119(sp)
 40027e4:	003b8006 	br	40015e8 <__ram_exceptions_end+0xfabfd45c>
 40027e8:	d8002e15 	stw	zero,184(sp)
 40027ec:	dc001e04 	addi	r16,sp,120
 40027f0:	003a4d06 	br	4001128 <__ram_exceptions_end+0xfabfcf9c>
 40027f4:	8c7fff84 	addi	r17,r17,-2
 40027f8:	b5bfffc4 	addi	r22,r22,-1
 40027fc:	dd802615 	stw	r22,152(sp)
 4002800:	dc4022c5 	stb	r17,139(sp)
 4002804:	b000bf16 	blt	r22,zero,4002b04 <___vfprintf_internal_r+0x20f8>
 4002808:	00800ac4 	movi	r2,43
 400280c:	d8802305 	stb	r2,140(sp)
 4002810:	00800244 	movi	r2,9
 4002814:	15807016 	blt	r2,r22,40029d8 <___vfprintf_internal_r+0x1fcc>
 4002818:	00800c04 	movi	r2,48
 400281c:	b5800c04 	addi	r22,r22,48
 4002820:	d8802345 	stb	r2,141(sp)
 4002824:	dd802385 	stb	r22,142(sp)
 4002828:	d88023c4 	addi	r2,sp,143
 400282c:	df0022c4 	addi	fp,sp,139
 4002830:	d8c03317 	ldw	r3,204(sp)
 4002834:	1739c83a 	sub	fp,r2,fp
 4002838:	d9003317 	ldw	r4,204(sp)
 400283c:	e0c7883a 	add	r3,fp,r3
 4002840:	df003a15 	stw	fp,232(sp)
 4002844:	d8c02e15 	stw	r3,184(sp)
 4002848:	00800044 	movi	r2,1
 400284c:	1100b30e 	bge	r2,r4,4002b1c <___vfprintf_internal_r+0x2110>
 4002850:	d8c02e17 	ldw	r3,184(sp)
 4002854:	18c00044 	addi	r3,r3,1
 4002858:	d8c02e15 	stw	r3,184(sp)
 400285c:	1805883a 	mov	r2,r3
 4002860:	1800ac16 	blt	r3,zero,4002b14 <___vfprintf_internal_r+0x2108>
 4002864:	d8003215 	stw	zero,200(sp)
 4002868:	003e5d06 	br	40021e0 <__ram_exceptions_end+0xfabfe054>
 400286c:	d9002c17 	ldw	r4,176(sp)
 4002870:	d9801e04 	addi	r6,sp,120
 4002874:	b80b883a 	mov	r5,r23
 4002878:	40075240 	call	4007524 <__sprint_r>
 400287c:	1039651e 	bne	r2,zero,4000e14 <__ram_exceptions_end+0xfabfcc88>
 4002880:	dc402617 	ldw	r17,152(sp)
 4002884:	d8c02017 	ldw	r3,128(sp)
 4002888:	d8801f17 	ldw	r2,124(sp)
 400288c:	da000404 	addi	r8,sp,16
 4002890:	003ed606 	br	40023ec <__ram_exceptions_end+0xfabfe260>
 4002894:	582b883a 	mov	r21,r11
 4002898:	d8002915 	stw	zero,164(sp)
 400289c:	0038bd06 	br	4000b94 <__ram_exceptions_end+0xfabfca08>
 40028a0:	d8802917 	ldw	r2,164(sp)
 40028a4:	103e071e 	bne	r2,zero,40020c4 <__ram_exceptions_end+0xfabfdf38>
 40028a8:	dc002915 	stw	r16,164(sp)
 40028ac:	003e0506 	br	40020c4 <__ram_exceptions_end+0xfabfdf38>
 40028b0:	d9002917 	ldw	r4,164(sp)
 40028b4:	20c00044 	addi	r3,r4,1
 40028b8:	003e0f06 	br	40020f8 <__ram_exceptions_end+0xfabfdf6c>
 40028bc:	01400184 	movi	r5,6
 40028c0:	d9402915 	stw	r5,164(sp)
 40028c4:	003dff06 	br	40020c4 <__ram_exceptions_end+0xfabfdf38>
 40028c8:	d8802104 	addi	r2,sp,132
 40028cc:	d8800315 	stw	r2,12(sp)
 40028d0:	d8802504 	addi	r2,sp,148
 40028d4:	d8800215 	stw	r2,8(sp)
 40028d8:	d8802604 	addi	r2,sp,152
 40028dc:	d8800115 	stw	r2,4(sp)
 40028e0:	d8802917 	ldw	r2,164(sp)
 40028e4:	d9403617 	ldw	r5,216(sp)
 40028e8:	d9002c17 	ldw	r4,176(sp)
 40028ec:	d8800015 	stw	r2,0(sp)
 40028f0:	01c000c4 	movi	r7,3
 40028f4:	980d883a 	mov	r6,r19
 40028f8:	da003d15 	stw	r8,244(sp)
 40028fc:	40030300 	call	4003030 <_dtoa_r>
 4002900:	d8c02917 	ldw	r3,164(sp)
 4002904:	da003d17 	ldw	r8,244(sp)
 4002908:	1021883a 	mov	r16,r2
 400290c:	10f9883a 	add	fp,r2,r3
 4002910:	81000007 	ldb	r4,0(r16)
 4002914:	00800c04 	movi	r2,48
 4002918:	20805e26 	beq	r4,r2,4002a94 <___vfprintf_internal_r+0x2088>
 400291c:	d8c02617 	ldw	r3,152(sp)
 4002920:	e0f9883a 	add	fp,fp,r3
 4002924:	003e0a06 	br	4002150 <__ram_exceptions_end+0xfabfdfc4>
 4002928:	00c00b44 	movi	r3,45
 400292c:	24e0003c 	xorhi	r19,r4,32768
 4002930:	d8c02a05 	stb	r3,168(sp)
 4002934:	003de906 	br	40020dc <__ram_exceptions_end+0xfabfdf50>
 4002938:	d8c03217 	ldw	r3,200(sp)
 400293c:	00c07a0e 	bge	zero,r3,4002b28 <___vfprintf_internal_r+0x211c>
 4002940:	00800044 	movi	r2,1
 4002944:	d9003317 	ldw	r4,204(sp)
 4002948:	1105883a 	add	r2,r2,r4
 400294c:	d8802e15 	stw	r2,184(sp)
 4002950:	10004e16 	blt	r2,zero,4002a8c <___vfprintf_internal_r+0x2080>
 4002954:	044019c4 	movi	r17,103
 4002958:	003e2106 	br	40021e0 <__ram_exceptions_end+0xfabfe054>
 400295c:	d9002917 	ldw	r4,164(sp)
 4002960:	d8802104 	addi	r2,sp,132
 4002964:	d8800315 	stw	r2,12(sp)
 4002968:	d9000015 	stw	r4,0(sp)
 400296c:	d8802504 	addi	r2,sp,148
 4002970:	d9403617 	ldw	r5,216(sp)
 4002974:	d9002c17 	ldw	r4,176(sp)
 4002978:	d8800215 	stw	r2,8(sp)
 400297c:	d8802604 	addi	r2,sp,152
 4002980:	d8800115 	stw	r2,4(sp)
 4002984:	01c000c4 	movi	r7,3
 4002988:	980d883a 	mov	r6,r19
 400298c:	da003d15 	stw	r8,244(sp)
 4002990:	40030300 	call	4003030 <_dtoa_r>
 4002994:	d8c02917 	ldw	r3,164(sp)
 4002998:	da003d17 	ldw	r8,244(sp)
 400299c:	1021883a 	mov	r16,r2
 40029a0:	00801184 	movi	r2,70
 40029a4:	80f9883a 	add	fp,r16,r3
 40029a8:	88bfd926 	beq	r17,r2,4002910 <__ram_exceptions_end+0xfabfe784>
 40029ac:	003de806 	br	4002150 <__ram_exceptions_end+0xfabfdfc4>
 40029b0:	d9002917 	ldw	r4,164(sp)
 40029b4:	00c04d0e 	bge	zero,r3,4002aec <___vfprintf_internal_r+0x20e0>
 40029b8:	2000441e 	bne	r4,zero,4002acc <___vfprintf_internal_r+0x20c0>
 40029bc:	9480004c 	andi	r18,r18,1
 40029c0:	9000421e 	bne	r18,zero,4002acc <___vfprintf_internal_r+0x20c0>
 40029c4:	1805883a 	mov	r2,r3
 40029c8:	18007016 	blt	r3,zero,4002b8c <___vfprintf_internal_r+0x2180>
 40029cc:	d8c03217 	ldw	r3,200(sp)
 40029d0:	d8c02e15 	stw	r3,184(sp)
 40029d4:	003e0206 	br	40021e0 <__ram_exceptions_end+0xfabfe054>
 40029d8:	df0022c4 	addi	fp,sp,139
 40029dc:	dc002915 	stw	r16,164(sp)
 40029e0:	4027883a 	mov	r19,r8
 40029e4:	e021883a 	mov	r16,fp
 40029e8:	b009883a 	mov	r4,r22
 40029ec:	01400284 	movi	r5,10
 40029f0:	40008700 	call	4000870 <__modsi3>
 40029f4:	10800c04 	addi	r2,r2,48
 40029f8:	843fffc4 	addi	r16,r16,-1
 40029fc:	b009883a 	mov	r4,r22
 4002a00:	01400284 	movi	r5,10
 4002a04:	80800005 	stb	r2,0(r16)
 4002a08:	40007ec0 	call	40007ec <__divsi3>
 4002a0c:	102d883a 	mov	r22,r2
 4002a10:	00800244 	movi	r2,9
 4002a14:	15bff416 	blt	r2,r22,40029e8 <__ram_exceptions_end+0xfabfe85c>
 4002a18:	9811883a 	mov	r8,r19
 4002a1c:	b0800c04 	addi	r2,r22,48
 4002a20:	8027883a 	mov	r19,r16
 4002a24:	997fffc4 	addi	r5,r19,-1
 4002a28:	98bfffc5 	stb	r2,-1(r19)
 4002a2c:	dc002917 	ldw	r16,164(sp)
 4002a30:	2f006a2e 	bgeu	r5,fp,4002bdc <___vfprintf_internal_r+0x21d0>
 4002a34:	d9c02384 	addi	r7,sp,142
 4002a38:	3ccfc83a 	sub	r7,r7,r19
 4002a3c:	d9002344 	addi	r4,sp,141
 4002a40:	e1cf883a 	add	r7,fp,r7
 4002a44:	00000106 	br	4002a4c <___vfprintf_internal_r+0x2040>
 4002a48:	28800003 	ldbu	r2,0(r5)
 4002a4c:	20800005 	stb	r2,0(r4)
 4002a50:	21000044 	addi	r4,r4,1
 4002a54:	29400044 	addi	r5,r5,1
 4002a58:	393ffb1e 	bne	r7,r4,4002a48 <__ram_exceptions_end+0xfabfe8bc>
 4002a5c:	d8802304 	addi	r2,sp,140
 4002a60:	14c5c83a 	sub	r2,r2,r19
 4002a64:	d8c02344 	addi	r3,sp,141
 4002a68:	1885883a 	add	r2,r3,r2
 4002a6c:	003f7006 	br	4002830 <__ram_exceptions_end+0xfabfe6a4>
 4002a70:	0005883a 	mov	r2,zero
 4002a74:	003f0f06 	br	40026b4 <__ram_exceptions_end+0xfabfe528>
 4002a78:	d8c03217 	ldw	r3,200(sp)
 4002a7c:	18c00044 	addi	r3,r3,1
 4002a80:	d8c02e15 	stw	r3,184(sp)
 4002a84:	1805883a 	mov	r2,r3
 4002a88:	183fb20e 	bge	r3,zero,4002954 <__ram_exceptions_end+0xfabfe7c8>
 4002a8c:	0005883a 	mov	r2,zero
 4002a90:	003fb006 	br	4002954 <__ram_exceptions_end+0xfabfe7c8>
 4002a94:	d9003617 	ldw	r4,216(sp)
 4002a98:	000d883a 	mov	r6,zero
 4002a9c:	000f883a 	mov	r7,zero
 4002aa0:	980b883a 	mov	r5,r19
 4002aa4:	d8c03c15 	stw	r3,240(sp)
 4002aa8:	da003d15 	stw	r8,244(sp)
 4002aac:	400bb640 	call	400bb64 <__eqdf2>
 4002ab0:	d8c03c17 	ldw	r3,240(sp)
 4002ab4:	da003d17 	ldw	r8,244(sp)
 4002ab8:	103f9826 	beq	r2,zero,400291c <__ram_exceptions_end+0xfabfe790>
 4002abc:	00800044 	movi	r2,1
 4002ac0:	10c7c83a 	sub	r3,r2,r3
 4002ac4:	d8c02615 	stw	r3,152(sp)
 4002ac8:	003f9506 	br	4002920 <__ram_exceptions_end+0xfabfe794>
 4002acc:	d9002917 	ldw	r4,164(sp)
 4002ad0:	d8c03217 	ldw	r3,200(sp)
 4002ad4:	20800044 	addi	r2,r4,1
 4002ad8:	1885883a 	add	r2,r3,r2
 4002adc:	d8802e15 	stw	r2,184(sp)
 4002ae0:	103dbf0e 	bge	r2,zero,40021e0 <__ram_exceptions_end+0xfabfe054>
 4002ae4:	0005883a 	mov	r2,zero
 4002ae8:	003dbd06 	br	40021e0 <__ram_exceptions_end+0xfabfe054>
 4002aec:	2000211e 	bne	r4,zero,4002b74 <___vfprintf_internal_r+0x2168>
 4002af0:	9480004c 	andi	r18,r18,1
 4002af4:	90001f1e 	bne	r18,zero,4002b74 <___vfprintf_internal_r+0x2168>
 4002af8:	00800044 	movi	r2,1
 4002afc:	d8802e15 	stw	r2,184(sp)
 4002b00:	003db706 	br	40021e0 <__ram_exceptions_end+0xfabfe054>
 4002b04:	00800b44 	movi	r2,45
 4002b08:	05adc83a 	sub	r22,zero,r22
 4002b0c:	d8802305 	stb	r2,140(sp)
 4002b10:	003f3f06 	br	4002810 <__ram_exceptions_end+0xfabfe684>
 4002b14:	0005883a 	mov	r2,zero
 4002b18:	003f5206 	br	4002864 <__ram_exceptions_end+0xfabfe6d8>
 4002b1c:	90a4703a 	and	r18,r18,r2
 4002b20:	903f4e26 	beq	r18,zero,400285c <__ram_exceptions_end+0xfabfe6d0>
 4002b24:	003f4a06 	br	4002850 <__ram_exceptions_end+0xfabfe6c4>
 4002b28:	00800084 	movi	r2,2
 4002b2c:	10c5c83a 	sub	r2,r2,r3
 4002b30:	003f8406 	br	4002944 <__ram_exceptions_end+0xfabfe7b8>
 4002b34:	d8802d17 	ldw	r2,180(sp)
 4002b38:	d9002d17 	ldw	r4,180(sp)
 4002b3c:	ac400043 	ldbu	r17,1(r21)
 4002b40:	10800017 	ldw	r2,0(r2)
 4002b44:	582b883a 	mov	r21,r11
 4002b48:	d8802915 	stw	r2,164(sp)
 4002b4c:	20800104 	addi	r2,r4,4
 4002b50:	d9002917 	ldw	r4,164(sp)
 4002b54:	d8802d15 	stw	r2,180(sp)
 4002b58:	203e7a0e 	bge	r4,zero,4002544 <__ram_exceptions_end+0xfabfe3b8>
 4002b5c:	8c403fcc 	andi	r17,r17,255
 4002b60:	00bfffc4 	movi	r2,-1
 4002b64:	8c40201c 	xori	r17,r17,128
 4002b68:	d8802915 	stw	r2,164(sp)
 4002b6c:	8c7fe004 	addi	r17,r17,-128
 4002b70:	00380706 	br	4000b90 <__ram_exceptions_end+0xfabfca04>
 4002b74:	d8c02917 	ldw	r3,164(sp)
 4002b78:	18c00084 	addi	r3,r3,2
 4002b7c:	d8c02e15 	stw	r3,184(sp)
 4002b80:	1805883a 	mov	r2,r3
 4002b84:	183d960e 	bge	r3,zero,40021e0 <__ram_exceptions_end+0xfabfe054>
 4002b88:	003fd606 	br	4002ae4 <__ram_exceptions_end+0xfabfe958>
 4002b8c:	0005883a 	mov	r2,zero
 4002b90:	003f8e06 	br	40029cc <__ram_exceptions_end+0xfabfe840>
 4002b94:	9080004c 	andi	r2,r18,1
 4002b98:	103f811e 	bne	r2,zero,40029a0 <__ram_exceptions_end+0xfabfe814>
 4002b9c:	d8802117 	ldw	r2,132(sp)
 4002ba0:	1405c83a 	sub	r2,r2,r16
 4002ba4:	d8803315 	stw	r2,204(sp)
 4002ba8:	b47ef326 	beq	r22,r17,4002778 <__ram_exceptions_end+0xfabfe5ec>
 4002bac:	dd802617 	ldw	r22,152(sp)
 4002bb0:	003f1106 	br	40027f8 <__ram_exceptions_end+0xfabfe66c>
 4002bb4:	d9c02785 	stb	r7,158(sp)
 4002bb8:	00390406 	br	4000fcc <__ram_exceptions_end+0xfabfce40>
 4002bbc:	d9c02785 	stb	r7,158(sp)
 4002bc0:	0038d306 	br	4000f10 <__ram_exceptions_end+0xfabfcd84>
 4002bc4:	d9c02785 	stb	r7,158(sp)
 4002bc8:	003a6106 	br	4001550 <__ram_exceptions_end+0xfabfd3c4>
 4002bcc:	d9c02785 	stb	r7,158(sp)
 4002bd0:	003af806 	br	40017b4 <__ram_exceptions_end+0xfabfd628>
 4002bd4:	0005883a 	mov	r2,zero
 4002bd8:	003d7e06 	br	40021d4 <__ram_exceptions_end+0xfabfe048>
 4002bdc:	d8802344 	addi	r2,sp,141
 4002be0:	003f1306 	br	4002830 <__ram_exceptions_end+0xfabfe6a4>
 4002be4:	d9c02785 	stb	r7,158(sp)
 4002be8:	00392306 	br	4001078 <__ram_exceptions_end+0xfabfceec>
 4002bec:	d9c02785 	stb	r7,158(sp)
 4002bf0:	003aa906 	br	4001698 <__ram_exceptions_end+0xfabfd50c>
 4002bf4:	d9c02785 	stb	r7,158(sp)
 4002bf8:	003a3d06 	br	40014f0 <__ram_exceptions_end+0xfabfd364>
 4002bfc:	d9c02785 	stb	r7,158(sp)
 4002c00:	003aca06 	br	400172c <__ram_exceptions_end+0xfabfd5a0>

04002c04 <__vfprintf_internal>:
 4002c04:	00810074 	movhi	r2,1025
 4002c08:	10826504 	addi	r2,r2,2452
 4002c0c:	300f883a 	mov	r7,r6
 4002c10:	280d883a 	mov	r6,r5
 4002c14:	200b883a 	mov	r5,r4
 4002c18:	11000017 	ldw	r4,0(r2)
 4002c1c:	4000a0c1 	jmpi	4000a0c <___vfprintf_internal_r>

04002c20 <__sbprintf>:
 4002c20:	2880030b 	ldhu	r2,12(r5)
 4002c24:	2ac01917 	ldw	r11,100(r5)
 4002c28:	2a80038b 	ldhu	r10,14(r5)
 4002c2c:	2a400717 	ldw	r9,28(r5)
 4002c30:	2a000917 	ldw	r8,36(r5)
 4002c34:	defee204 	addi	sp,sp,-1144
 4002c38:	00c10004 	movi	r3,1024
 4002c3c:	dc011a15 	stw	r16,1128(sp)
 4002c40:	10bfff4c 	andi	r2,r2,65533
 4002c44:	2821883a 	mov	r16,r5
 4002c48:	d8cb883a 	add	r5,sp,r3
 4002c4c:	dc811c15 	stw	r18,1136(sp)
 4002c50:	dc411b15 	stw	r17,1132(sp)
 4002c54:	dfc11d15 	stw	ra,1140(sp)
 4002c58:	2025883a 	mov	r18,r4
 4002c5c:	d881030d 	sth	r2,1036(sp)
 4002c60:	dac11915 	stw	r11,1124(sp)
 4002c64:	da81038d 	sth	r10,1038(sp)
 4002c68:	da410715 	stw	r9,1052(sp)
 4002c6c:	da010915 	stw	r8,1060(sp)
 4002c70:	dec10015 	stw	sp,1024(sp)
 4002c74:	dec10415 	stw	sp,1040(sp)
 4002c78:	d8c10215 	stw	r3,1032(sp)
 4002c7c:	d8c10515 	stw	r3,1044(sp)
 4002c80:	d8010615 	stw	zero,1048(sp)
 4002c84:	4000a0c0 	call	4000a0c <___vfprintf_internal_r>
 4002c88:	1023883a 	mov	r17,r2
 4002c8c:	10000416 	blt	r2,zero,4002ca0 <__sbprintf+0x80>
 4002c90:	d9410004 	addi	r5,sp,1024
 4002c94:	9009883a 	mov	r4,r18
 4002c98:	40048d40 	call	40048d4 <_fflush_r>
 4002c9c:	10000d1e 	bne	r2,zero,4002cd4 <__sbprintf+0xb4>
 4002ca0:	d881030b 	ldhu	r2,1036(sp)
 4002ca4:	1080100c 	andi	r2,r2,64
 4002ca8:	10000326 	beq	r2,zero,4002cb8 <__sbprintf+0x98>
 4002cac:	8080030b 	ldhu	r2,12(r16)
 4002cb0:	10801014 	ori	r2,r2,64
 4002cb4:	8080030d 	sth	r2,12(r16)
 4002cb8:	8805883a 	mov	r2,r17
 4002cbc:	dfc11d17 	ldw	ra,1140(sp)
 4002cc0:	dc811c17 	ldw	r18,1136(sp)
 4002cc4:	dc411b17 	ldw	r17,1132(sp)
 4002cc8:	dc011a17 	ldw	r16,1128(sp)
 4002ccc:	dec11e04 	addi	sp,sp,1144
 4002cd0:	f800283a 	ret
 4002cd4:	047fffc4 	movi	r17,-1
 4002cd8:	003ff106 	br	4002ca0 <__ram_exceptions_end+0xfabfeb14>

04002cdc <__swsetup_r>:
 4002cdc:	00810074 	movhi	r2,1025
 4002ce0:	defffd04 	addi	sp,sp,-12
 4002ce4:	10826504 	addi	r2,r2,2452
 4002ce8:	dc400115 	stw	r17,4(sp)
 4002cec:	2023883a 	mov	r17,r4
 4002cf0:	11000017 	ldw	r4,0(r2)
 4002cf4:	dc000015 	stw	r16,0(sp)
 4002cf8:	dfc00215 	stw	ra,8(sp)
 4002cfc:	2821883a 	mov	r16,r5
 4002d00:	20000226 	beq	r4,zero,4002d0c <__swsetup_r+0x30>
 4002d04:	20800e17 	ldw	r2,56(r4)
 4002d08:	10003126 	beq	r2,zero,4002dd0 <__swsetup_r+0xf4>
 4002d0c:	8080030b 	ldhu	r2,12(r16)
 4002d10:	10c0020c 	andi	r3,r2,8
 4002d14:	1009883a 	mov	r4,r2
 4002d18:	18000f26 	beq	r3,zero,4002d58 <__swsetup_r+0x7c>
 4002d1c:	80c00417 	ldw	r3,16(r16)
 4002d20:	18001526 	beq	r3,zero,4002d78 <__swsetup_r+0x9c>
 4002d24:	1100004c 	andi	r4,r2,1
 4002d28:	20001c1e 	bne	r4,zero,4002d9c <__swsetup_r+0xc0>
 4002d2c:	1080008c 	andi	r2,r2,2
 4002d30:	1000291e 	bne	r2,zero,4002dd8 <__swsetup_r+0xfc>
 4002d34:	80800517 	ldw	r2,20(r16)
 4002d38:	80800215 	stw	r2,8(r16)
 4002d3c:	18001c26 	beq	r3,zero,4002db0 <__swsetup_r+0xd4>
 4002d40:	0005883a 	mov	r2,zero
 4002d44:	dfc00217 	ldw	ra,8(sp)
 4002d48:	dc400117 	ldw	r17,4(sp)
 4002d4c:	dc000017 	ldw	r16,0(sp)
 4002d50:	dec00304 	addi	sp,sp,12
 4002d54:	f800283a 	ret
 4002d58:	2080040c 	andi	r2,r4,16
 4002d5c:	10002e26 	beq	r2,zero,4002e18 <__swsetup_r+0x13c>
 4002d60:	2080010c 	andi	r2,r4,4
 4002d64:	10001e1e 	bne	r2,zero,4002de0 <__swsetup_r+0x104>
 4002d68:	80c00417 	ldw	r3,16(r16)
 4002d6c:	20800214 	ori	r2,r4,8
 4002d70:	8080030d 	sth	r2,12(r16)
 4002d74:	183feb1e 	bne	r3,zero,4002d24 <__ram_exceptions_end+0xfabfeb98>
 4002d78:	1100a00c 	andi	r4,r2,640
 4002d7c:	01408004 	movi	r5,512
 4002d80:	217fe826 	beq	r4,r5,4002d24 <__ram_exceptions_end+0xfabfeb98>
 4002d84:	800b883a 	mov	r5,r16
 4002d88:	8809883a 	mov	r4,r17
 4002d8c:	40053980 	call	4005398 <__smakebuf_r>
 4002d90:	8080030b 	ldhu	r2,12(r16)
 4002d94:	80c00417 	ldw	r3,16(r16)
 4002d98:	003fe206 	br	4002d24 <__ram_exceptions_end+0xfabfeb98>
 4002d9c:	80800517 	ldw	r2,20(r16)
 4002da0:	80000215 	stw	zero,8(r16)
 4002da4:	0085c83a 	sub	r2,zero,r2
 4002da8:	80800615 	stw	r2,24(r16)
 4002dac:	183fe41e 	bne	r3,zero,4002d40 <__ram_exceptions_end+0xfabfebb4>
 4002db0:	80c0030b 	ldhu	r3,12(r16)
 4002db4:	0005883a 	mov	r2,zero
 4002db8:	1900200c 	andi	r4,r3,128
 4002dbc:	203fe126 	beq	r4,zero,4002d44 <__ram_exceptions_end+0xfabfebb8>
 4002dc0:	18c01014 	ori	r3,r3,64
 4002dc4:	80c0030d 	sth	r3,12(r16)
 4002dc8:	00bfffc4 	movi	r2,-1
 4002dcc:	003fdd06 	br	4002d44 <__ram_exceptions_end+0xfabfebb8>
 4002dd0:	4004cb00 	call	4004cb0 <__sinit>
 4002dd4:	003fcd06 	br	4002d0c <__ram_exceptions_end+0xfabfeb80>
 4002dd8:	0005883a 	mov	r2,zero
 4002ddc:	003fd606 	br	4002d38 <__ram_exceptions_end+0xfabfebac>
 4002de0:	81400c17 	ldw	r5,48(r16)
 4002de4:	28000626 	beq	r5,zero,4002e00 <__swsetup_r+0x124>
 4002de8:	80801004 	addi	r2,r16,64
 4002dec:	28800326 	beq	r5,r2,4002dfc <__swsetup_r+0x120>
 4002df0:	8809883a 	mov	r4,r17
 4002df4:	4004e240 	call	4004e24 <_free_r>
 4002df8:	8100030b 	ldhu	r4,12(r16)
 4002dfc:	80000c15 	stw	zero,48(r16)
 4002e00:	80c00417 	ldw	r3,16(r16)
 4002e04:	00bff6c4 	movi	r2,-37
 4002e08:	1108703a 	and	r4,r2,r4
 4002e0c:	80000115 	stw	zero,4(r16)
 4002e10:	80c00015 	stw	r3,0(r16)
 4002e14:	003fd506 	br	4002d6c <__ram_exceptions_end+0xfabfebe0>
 4002e18:	00800244 	movi	r2,9
 4002e1c:	88800015 	stw	r2,0(r17)
 4002e20:	20801014 	ori	r2,r4,64
 4002e24:	8080030d 	sth	r2,12(r16)
 4002e28:	00bfffc4 	movi	r2,-1
 4002e2c:	003fc506 	br	4002d44 <__ram_exceptions_end+0xfabfebb8>

04002e30 <quorem>:
 4002e30:	defff704 	addi	sp,sp,-36
 4002e34:	dc800215 	stw	r18,8(sp)
 4002e38:	20800417 	ldw	r2,16(r4)
 4002e3c:	2c800417 	ldw	r18,16(r5)
 4002e40:	dfc00815 	stw	ra,32(sp)
 4002e44:	ddc00715 	stw	r23,28(sp)
 4002e48:	dd800615 	stw	r22,24(sp)
 4002e4c:	dd400515 	stw	r21,20(sp)
 4002e50:	dd000415 	stw	r20,16(sp)
 4002e54:	dcc00315 	stw	r19,12(sp)
 4002e58:	dc400115 	stw	r17,4(sp)
 4002e5c:	dc000015 	stw	r16,0(sp)
 4002e60:	14807116 	blt	r2,r18,4003028 <quorem+0x1f8>
 4002e64:	94bfffc4 	addi	r18,r18,-1
 4002e68:	94ad883a 	add	r22,r18,r18
 4002e6c:	b5ad883a 	add	r22,r22,r22
 4002e70:	2c400504 	addi	r17,r5,20
 4002e74:	8da9883a 	add	r20,r17,r22
 4002e78:	25400504 	addi	r21,r4,20
 4002e7c:	282f883a 	mov	r23,r5
 4002e80:	adad883a 	add	r22,r21,r22
 4002e84:	a1400017 	ldw	r5,0(r20)
 4002e88:	2021883a 	mov	r16,r4
 4002e8c:	b1000017 	ldw	r4,0(r22)
 4002e90:	29400044 	addi	r5,r5,1
 4002e94:	40008e40 	call	40008e4 <__udivsi3>
 4002e98:	1027883a 	mov	r19,r2
 4002e9c:	10002c26 	beq	r2,zero,4002f50 <quorem+0x120>
 4002ea0:	a813883a 	mov	r9,r21
 4002ea4:	880b883a 	mov	r5,r17
 4002ea8:	0009883a 	mov	r4,zero
 4002eac:	000d883a 	mov	r6,zero
 4002eb0:	2a000017 	ldw	r8,0(r5)
 4002eb4:	49c00017 	ldw	r7,0(r9)
 4002eb8:	29400104 	addi	r5,r5,4
 4002ebc:	40bfffcc 	andi	r2,r8,65535
 4002ec0:	14c5383a 	mul	r2,r2,r19
 4002ec4:	4010d43a 	srli	r8,r8,16
 4002ec8:	38ffffcc 	andi	r3,r7,65535
 4002ecc:	1105883a 	add	r2,r2,r4
 4002ed0:	1008d43a 	srli	r4,r2,16
 4002ed4:	44d1383a 	mul	r8,r8,r19
 4002ed8:	198d883a 	add	r6,r3,r6
 4002edc:	10ffffcc 	andi	r3,r2,65535
 4002ee0:	30c7c83a 	sub	r3,r6,r3
 4002ee4:	380ed43a 	srli	r7,r7,16
 4002ee8:	4105883a 	add	r2,r8,r4
 4002eec:	180dd43a 	srai	r6,r3,16
 4002ef0:	113fffcc 	andi	r4,r2,65535
 4002ef4:	390fc83a 	sub	r7,r7,r4
 4002ef8:	398d883a 	add	r6,r7,r6
 4002efc:	300e943a 	slli	r7,r6,16
 4002f00:	18ffffcc 	andi	r3,r3,65535
 4002f04:	1008d43a 	srli	r4,r2,16
 4002f08:	38ceb03a 	or	r7,r7,r3
 4002f0c:	49c00015 	stw	r7,0(r9)
 4002f10:	300dd43a 	srai	r6,r6,16
 4002f14:	4a400104 	addi	r9,r9,4
 4002f18:	a17fe52e 	bgeu	r20,r5,4002eb0 <__ram_exceptions_end+0xfabfed24>
 4002f1c:	b0800017 	ldw	r2,0(r22)
 4002f20:	10000b1e 	bne	r2,zero,4002f50 <quorem+0x120>
 4002f24:	b0bfff04 	addi	r2,r22,-4
 4002f28:	a880082e 	bgeu	r21,r2,4002f4c <quorem+0x11c>
 4002f2c:	b0ffff17 	ldw	r3,-4(r22)
 4002f30:	18000326 	beq	r3,zero,4002f40 <quorem+0x110>
 4002f34:	00000506 	br	4002f4c <quorem+0x11c>
 4002f38:	10c00017 	ldw	r3,0(r2)
 4002f3c:	1800031e 	bne	r3,zero,4002f4c <quorem+0x11c>
 4002f40:	10bfff04 	addi	r2,r2,-4
 4002f44:	94bfffc4 	addi	r18,r18,-1
 4002f48:	a8bffb36 	bltu	r21,r2,4002f38 <__ram_exceptions_end+0xfabfedac>
 4002f4c:	84800415 	stw	r18,16(r16)
 4002f50:	b80b883a 	mov	r5,r23
 4002f54:	8009883a 	mov	r4,r16
 4002f58:	400697c0 	call	400697c <__mcmp>
 4002f5c:	10002616 	blt	r2,zero,4002ff8 <quorem+0x1c8>
 4002f60:	9cc00044 	addi	r19,r19,1
 4002f64:	a805883a 	mov	r2,r21
 4002f68:	000b883a 	mov	r5,zero
 4002f6c:	11000017 	ldw	r4,0(r2)
 4002f70:	89800017 	ldw	r6,0(r17)
 4002f74:	10800104 	addi	r2,r2,4
 4002f78:	20ffffcc 	andi	r3,r4,65535
 4002f7c:	194b883a 	add	r5,r3,r5
 4002f80:	30ffffcc 	andi	r3,r6,65535
 4002f84:	28c7c83a 	sub	r3,r5,r3
 4002f88:	300cd43a 	srli	r6,r6,16
 4002f8c:	2008d43a 	srli	r4,r4,16
 4002f90:	180bd43a 	srai	r5,r3,16
 4002f94:	18ffffcc 	andi	r3,r3,65535
 4002f98:	2189c83a 	sub	r4,r4,r6
 4002f9c:	2149883a 	add	r4,r4,r5
 4002fa0:	200c943a 	slli	r6,r4,16
 4002fa4:	8c400104 	addi	r17,r17,4
 4002fa8:	200bd43a 	srai	r5,r4,16
 4002fac:	30c6b03a 	or	r3,r6,r3
 4002fb0:	10ffff15 	stw	r3,-4(r2)
 4002fb4:	a47fed2e 	bgeu	r20,r17,4002f6c <__ram_exceptions_end+0xfabfede0>
 4002fb8:	9485883a 	add	r2,r18,r18
 4002fbc:	1085883a 	add	r2,r2,r2
 4002fc0:	a887883a 	add	r3,r21,r2
 4002fc4:	18800017 	ldw	r2,0(r3)
 4002fc8:	10000b1e 	bne	r2,zero,4002ff8 <quorem+0x1c8>
 4002fcc:	18bfff04 	addi	r2,r3,-4
 4002fd0:	a880082e 	bgeu	r21,r2,4002ff4 <quorem+0x1c4>
 4002fd4:	18ffff17 	ldw	r3,-4(r3)
 4002fd8:	18000326 	beq	r3,zero,4002fe8 <quorem+0x1b8>
 4002fdc:	00000506 	br	4002ff4 <quorem+0x1c4>
 4002fe0:	10c00017 	ldw	r3,0(r2)
 4002fe4:	1800031e 	bne	r3,zero,4002ff4 <quorem+0x1c4>
 4002fe8:	10bfff04 	addi	r2,r2,-4
 4002fec:	94bfffc4 	addi	r18,r18,-1
 4002ff0:	a8bffb36 	bltu	r21,r2,4002fe0 <__ram_exceptions_end+0xfabfee54>
 4002ff4:	84800415 	stw	r18,16(r16)
 4002ff8:	9805883a 	mov	r2,r19
 4002ffc:	dfc00817 	ldw	ra,32(sp)
 4003000:	ddc00717 	ldw	r23,28(sp)
 4003004:	dd800617 	ldw	r22,24(sp)
 4003008:	dd400517 	ldw	r21,20(sp)
 400300c:	dd000417 	ldw	r20,16(sp)
 4003010:	dcc00317 	ldw	r19,12(sp)
 4003014:	dc800217 	ldw	r18,8(sp)
 4003018:	dc400117 	ldw	r17,4(sp)
 400301c:	dc000017 	ldw	r16,0(sp)
 4003020:	dec00904 	addi	sp,sp,36
 4003024:	f800283a 	ret
 4003028:	0005883a 	mov	r2,zero
 400302c:	003ff306 	br	4002ffc <__ram_exceptions_end+0xfabfee70>

04003030 <_dtoa_r>:
 4003030:	20801017 	ldw	r2,64(r4)
 4003034:	deffde04 	addi	sp,sp,-136
 4003038:	df002015 	stw	fp,128(sp)
 400303c:	dcc01b15 	stw	r19,108(sp)
 4003040:	dc801a15 	stw	r18,104(sp)
 4003044:	dc401915 	stw	r17,100(sp)
 4003048:	dc001815 	stw	r16,96(sp)
 400304c:	dfc02115 	stw	ra,132(sp)
 4003050:	ddc01f15 	stw	r23,124(sp)
 4003054:	dd801e15 	stw	r22,120(sp)
 4003058:	dd401d15 	stw	r21,116(sp)
 400305c:	dd001c15 	stw	r20,112(sp)
 4003060:	d9c00315 	stw	r7,12(sp)
 4003064:	2039883a 	mov	fp,r4
 4003068:	3023883a 	mov	r17,r6
 400306c:	2825883a 	mov	r18,r5
 4003070:	dc002417 	ldw	r16,144(sp)
 4003074:	3027883a 	mov	r19,r6
 4003078:	10000826 	beq	r2,zero,400309c <_dtoa_r+0x6c>
 400307c:	21801117 	ldw	r6,68(r4)
 4003080:	00c00044 	movi	r3,1
 4003084:	100b883a 	mov	r5,r2
 4003088:	1986983a 	sll	r3,r3,r6
 400308c:	11800115 	stw	r6,4(r2)
 4003090:	10c00215 	stw	r3,8(r2)
 4003094:	400615c0 	call	400615c <_Bfree>
 4003098:	e0001015 	stw	zero,64(fp)
 400309c:	88002e16 	blt	r17,zero,4003158 <_dtoa_r+0x128>
 40030a0:	80000015 	stw	zero,0(r16)
 40030a4:	889ffc2c 	andhi	r2,r17,32752
 40030a8:	00dffc34 	movhi	r3,32752
 40030ac:	10c01c26 	beq	r2,r3,4003120 <_dtoa_r+0xf0>
 40030b0:	000d883a 	mov	r6,zero
 40030b4:	000f883a 	mov	r7,zero
 40030b8:	9009883a 	mov	r4,r18
 40030bc:	980b883a 	mov	r5,r19
 40030c0:	400bb640 	call	400bb64 <__eqdf2>
 40030c4:	10002b1e 	bne	r2,zero,4003174 <_dtoa_r+0x144>
 40030c8:	d9c02317 	ldw	r7,140(sp)
 40030cc:	00800044 	movi	r2,1
 40030d0:	38800015 	stw	r2,0(r7)
 40030d4:	d8802517 	ldw	r2,148(sp)
 40030d8:	10019e26 	beq	r2,zero,4003754 <_dtoa_r+0x724>
 40030dc:	d8c02517 	ldw	r3,148(sp)
 40030e0:	00810074 	movhi	r2,1025
 40030e4:	10beb244 	addi	r2,r2,-1335
 40030e8:	18800015 	stw	r2,0(r3)
 40030ec:	10bfffc4 	addi	r2,r2,-1
 40030f0:	dfc02117 	ldw	ra,132(sp)
 40030f4:	df002017 	ldw	fp,128(sp)
 40030f8:	ddc01f17 	ldw	r23,124(sp)
 40030fc:	dd801e17 	ldw	r22,120(sp)
 4003100:	dd401d17 	ldw	r21,116(sp)
 4003104:	dd001c17 	ldw	r20,112(sp)
 4003108:	dcc01b17 	ldw	r19,108(sp)
 400310c:	dc801a17 	ldw	r18,104(sp)
 4003110:	dc401917 	ldw	r17,100(sp)
 4003114:	dc001817 	ldw	r16,96(sp)
 4003118:	dec02204 	addi	sp,sp,136
 400311c:	f800283a 	ret
 4003120:	d8c02317 	ldw	r3,140(sp)
 4003124:	0089c3c4 	movi	r2,9999
 4003128:	18800015 	stw	r2,0(r3)
 400312c:	90017726 	beq	r18,zero,400370c <_dtoa_r+0x6dc>
 4003130:	00810074 	movhi	r2,1025
 4003134:	10bebe04 	addi	r2,r2,-1288
 4003138:	d9002517 	ldw	r4,148(sp)
 400313c:	203fec26 	beq	r4,zero,40030f0 <__ram_exceptions_end+0xfabfef64>
 4003140:	10c000c7 	ldb	r3,3(r2)
 4003144:	1801781e 	bne	r3,zero,4003728 <_dtoa_r+0x6f8>
 4003148:	10c000c4 	addi	r3,r2,3
 400314c:	d9802517 	ldw	r6,148(sp)
 4003150:	30c00015 	stw	r3,0(r6)
 4003154:	003fe606 	br	40030f0 <__ram_exceptions_end+0xfabfef64>
 4003158:	04e00034 	movhi	r19,32768
 400315c:	9cffffc4 	addi	r19,r19,-1
 4003160:	00800044 	movi	r2,1
 4003164:	8ce6703a 	and	r19,r17,r19
 4003168:	80800015 	stw	r2,0(r16)
 400316c:	9823883a 	mov	r17,r19
 4003170:	003fcc06 	br	40030a4 <__ram_exceptions_end+0xfabfef18>
 4003174:	d8800204 	addi	r2,sp,8
 4003178:	d8800015 	stw	r2,0(sp)
 400317c:	d9c00104 	addi	r7,sp,4
 4003180:	900b883a 	mov	r5,r18
 4003184:	980d883a 	mov	r6,r19
 4003188:	e009883a 	mov	r4,fp
 400318c:	8820d53a 	srli	r16,r17,20
 4003190:	4006d480 	call	4006d48 <__d2b>
 4003194:	d8800915 	stw	r2,36(sp)
 4003198:	8001651e 	bne	r16,zero,4003730 <_dtoa_r+0x700>
 400319c:	dd800217 	ldw	r22,8(sp)
 40031a0:	dc000117 	ldw	r16,4(sp)
 40031a4:	00800804 	movi	r2,32
 40031a8:	b421883a 	add	r16,r22,r16
 40031ac:	80c10c84 	addi	r3,r16,1074
 40031b0:	10c2d10e 	bge	r2,r3,4003cf8 <_dtoa_r+0xcc8>
 40031b4:	00801004 	movi	r2,64
 40031b8:	81010484 	addi	r4,r16,1042
 40031bc:	10c7c83a 	sub	r3,r2,r3
 40031c0:	9108d83a 	srl	r4,r18,r4
 40031c4:	88e2983a 	sll	r17,r17,r3
 40031c8:	2448b03a 	or	r4,r4,r17
 40031cc:	400cf2c0 	call	400cf2c <__floatunsidf>
 40031d0:	017f8434 	movhi	r5,65040
 40031d4:	01800044 	movi	r6,1
 40031d8:	1009883a 	mov	r4,r2
 40031dc:	194b883a 	add	r5,r3,r5
 40031e0:	843fffc4 	addi	r16,r16,-1
 40031e4:	d9801115 	stw	r6,68(sp)
 40031e8:	000d883a 	mov	r6,zero
 40031ec:	01cffe34 	movhi	r7,16376
 40031f0:	400c4d40 	call	400c4d4 <__subdf3>
 40031f4:	0198dbf4 	movhi	r6,25455
 40031f8:	01cff4f4 	movhi	r7,16339
 40031fc:	3190d844 	addi	r6,r6,17249
 4003200:	39e1e9c4 	addi	r7,r7,-30809
 4003204:	1009883a 	mov	r4,r2
 4003208:	180b883a 	mov	r5,r3
 400320c:	400bdbc0 	call	400bdbc <__muldf3>
 4003210:	01a2d874 	movhi	r6,35681
 4003214:	01cff1f4 	movhi	r7,16327
 4003218:	31b22cc4 	addi	r6,r6,-14157
 400321c:	39e28a04 	addi	r7,r7,-30168
 4003220:	180b883a 	mov	r5,r3
 4003224:	1009883a 	mov	r4,r2
 4003228:	400a9d00 	call	400a9d0 <__adddf3>
 400322c:	8009883a 	mov	r4,r16
 4003230:	1029883a 	mov	r20,r2
 4003234:	1823883a 	mov	r17,r3
 4003238:	400ce500 	call	400ce50 <__floatsidf>
 400323c:	019427f4 	movhi	r6,20639
 4003240:	01cff4f4 	movhi	r7,16339
 4003244:	319e7ec4 	addi	r6,r6,31227
 4003248:	39d104c4 	addi	r7,r7,17427
 400324c:	1009883a 	mov	r4,r2
 4003250:	180b883a 	mov	r5,r3
 4003254:	400bdbc0 	call	400bdbc <__muldf3>
 4003258:	100d883a 	mov	r6,r2
 400325c:	180f883a 	mov	r7,r3
 4003260:	a009883a 	mov	r4,r20
 4003264:	880b883a 	mov	r5,r17
 4003268:	400a9d00 	call	400a9d0 <__adddf3>
 400326c:	1009883a 	mov	r4,r2
 4003270:	180b883a 	mov	r5,r3
 4003274:	1029883a 	mov	r20,r2
 4003278:	1823883a 	mov	r17,r3
 400327c:	400cdd00 	call	400cdd0 <__fixdfsi>
 4003280:	000d883a 	mov	r6,zero
 4003284:	000f883a 	mov	r7,zero
 4003288:	a009883a 	mov	r4,r20
 400328c:	880b883a 	mov	r5,r17
 4003290:	d8800515 	stw	r2,20(sp)
 4003294:	400bcc80 	call	400bcc8 <__ledf2>
 4003298:	10028716 	blt	r2,zero,4003cb8 <_dtoa_r+0xc88>
 400329c:	d8c00517 	ldw	r3,20(sp)
 40032a0:	00800584 	movi	r2,22
 40032a4:	10c27536 	bltu	r2,r3,4003c7c <_dtoa_r+0xc4c>
 40032a8:	180490fa 	slli	r2,r3,3
 40032ac:	00c10074 	movhi	r3,1025
 40032b0:	18feda04 	addi	r3,r3,-1176
 40032b4:	1885883a 	add	r2,r3,r2
 40032b8:	11000017 	ldw	r4,0(r2)
 40032bc:	11400117 	ldw	r5,4(r2)
 40032c0:	900d883a 	mov	r6,r18
 40032c4:	980f883a 	mov	r7,r19
 40032c8:	400bbec0 	call	400bbec <__gedf2>
 40032cc:	00828d0e 	bge	zero,r2,4003d04 <_dtoa_r+0xcd4>
 40032d0:	d9000517 	ldw	r4,20(sp)
 40032d4:	d8000e15 	stw	zero,56(sp)
 40032d8:	213fffc4 	addi	r4,r4,-1
 40032dc:	d9000515 	stw	r4,20(sp)
 40032e0:	b42dc83a 	sub	r22,r22,r16
 40032e4:	b5bfffc4 	addi	r22,r22,-1
 40032e8:	b0026f16 	blt	r22,zero,4003ca8 <_dtoa_r+0xc78>
 40032ec:	d8000815 	stw	zero,32(sp)
 40032f0:	d9c00517 	ldw	r7,20(sp)
 40032f4:	38026416 	blt	r7,zero,4003c88 <_dtoa_r+0xc58>
 40032f8:	b1ed883a 	add	r22,r22,r7
 40032fc:	d9c00d15 	stw	r7,52(sp)
 4003300:	d8000a15 	stw	zero,40(sp)
 4003304:	d9800317 	ldw	r6,12(sp)
 4003308:	00800244 	movi	r2,9
 400330c:	11811436 	bltu	r2,r6,4003760 <_dtoa_r+0x730>
 4003310:	00800144 	movi	r2,5
 4003314:	1184e10e 	bge	r2,r6,400469c <_dtoa_r+0x166c>
 4003318:	31bfff04 	addi	r6,r6,-4
 400331c:	d9800315 	stw	r6,12(sp)
 4003320:	0023883a 	mov	r17,zero
 4003324:	d9800317 	ldw	r6,12(sp)
 4003328:	008000c4 	movi	r2,3
 400332c:	30836726 	beq	r6,r2,40040cc <_dtoa_r+0x109c>
 4003330:	1183410e 	bge	r2,r6,4004038 <_dtoa_r+0x1008>
 4003334:	d9c00317 	ldw	r7,12(sp)
 4003338:	00800104 	movi	r2,4
 400333c:	38827c26 	beq	r7,r2,4003d30 <_dtoa_r+0xd00>
 4003340:	00800144 	movi	r2,5
 4003344:	3884c41e 	bne	r7,r2,4004658 <_dtoa_r+0x1628>
 4003348:	00800044 	movi	r2,1
 400334c:	d8800b15 	stw	r2,44(sp)
 4003350:	d8c00517 	ldw	r3,20(sp)
 4003354:	d9002217 	ldw	r4,136(sp)
 4003358:	1907883a 	add	r3,r3,r4
 400335c:	19800044 	addi	r6,r3,1
 4003360:	d8c00c15 	stw	r3,48(sp)
 4003364:	d9800615 	stw	r6,24(sp)
 4003368:	0183a40e 	bge	zero,r6,40041fc <_dtoa_r+0x11cc>
 400336c:	d9800617 	ldw	r6,24(sp)
 4003370:	3021883a 	mov	r16,r6
 4003374:	e0001115 	stw	zero,68(fp)
 4003378:	008005c4 	movi	r2,23
 400337c:	1184c92e 	bgeu	r2,r6,40046a4 <_dtoa_r+0x1674>
 4003380:	00c00044 	movi	r3,1
 4003384:	00800104 	movi	r2,4
 4003388:	1085883a 	add	r2,r2,r2
 400338c:	11000504 	addi	r4,r2,20
 4003390:	180b883a 	mov	r5,r3
 4003394:	18c00044 	addi	r3,r3,1
 4003398:	313ffb2e 	bgeu	r6,r4,4003388 <__ram_exceptions_end+0xfabff1fc>
 400339c:	e1401115 	stw	r5,68(fp)
 40033a0:	e009883a 	mov	r4,fp
 40033a4:	40060b40 	call	40060b4 <_Balloc>
 40033a8:	d8800715 	stw	r2,28(sp)
 40033ac:	e0801015 	stw	r2,64(fp)
 40033b0:	00800384 	movi	r2,14
 40033b4:	1400f736 	bltu	r2,r16,4003794 <_dtoa_r+0x764>
 40033b8:	8800f626 	beq	r17,zero,4003794 <_dtoa_r+0x764>
 40033bc:	d9c00517 	ldw	r7,20(sp)
 40033c0:	01c39a0e 	bge	zero,r7,400422c <_dtoa_r+0x11fc>
 40033c4:	388003cc 	andi	r2,r7,15
 40033c8:	100490fa 	slli	r2,r2,3
 40033cc:	382bd13a 	srai	r21,r7,4
 40033d0:	00c10074 	movhi	r3,1025
 40033d4:	18feda04 	addi	r3,r3,-1176
 40033d8:	1885883a 	add	r2,r3,r2
 40033dc:	a8c0040c 	andi	r3,r21,16
 40033e0:	12400017 	ldw	r9,0(r2)
 40033e4:	12000117 	ldw	r8,4(r2)
 40033e8:	18037926 	beq	r3,zero,40041d0 <_dtoa_r+0x11a0>
 40033ec:	00810074 	movhi	r2,1025
 40033f0:	10bed004 	addi	r2,r2,-1216
 40033f4:	11800817 	ldw	r6,32(r2)
 40033f8:	11c00917 	ldw	r7,36(r2)
 40033fc:	9009883a 	mov	r4,r18
 4003400:	980b883a 	mov	r5,r19
 4003404:	da001715 	stw	r8,92(sp)
 4003408:	da401615 	stw	r9,88(sp)
 400340c:	400b27c0 	call	400b27c <__divdf3>
 4003410:	da001717 	ldw	r8,92(sp)
 4003414:	da401617 	ldw	r9,88(sp)
 4003418:	ad4003cc 	andi	r21,r21,15
 400341c:	040000c4 	movi	r16,3
 4003420:	1023883a 	mov	r17,r2
 4003424:	1829883a 	mov	r20,r3
 4003428:	a8001126 	beq	r21,zero,4003470 <_dtoa_r+0x440>
 400342c:	05c10074 	movhi	r23,1025
 4003430:	bdfed004 	addi	r23,r23,-1216
 4003434:	4805883a 	mov	r2,r9
 4003438:	4007883a 	mov	r3,r8
 400343c:	a980004c 	andi	r6,r21,1
 4003440:	1009883a 	mov	r4,r2
 4003444:	a82bd07a 	srai	r21,r21,1
 4003448:	180b883a 	mov	r5,r3
 400344c:	30000426 	beq	r6,zero,4003460 <_dtoa_r+0x430>
 4003450:	b9800017 	ldw	r6,0(r23)
 4003454:	b9c00117 	ldw	r7,4(r23)
 4003458:	84000044 	addi	r16,r16,1
 400345c:	400bdbc0 	call	400bdbc <__muldf3>
 4003460:	bdc00204 	addi	r23,r23,8
 4003464:	a83ff51e 	bne	r21,zero,400343c <__ram_exceptions_end+0xfabff2b0>
 4003468:	1013883a 	mov	r9,r2
 400346c:	1811883a 	mov	r8,r3
 4003470:	480d883a 	mov	r6,r9
 4003474:	400f883a 	mov	r7,r8
 4003478:	8809883a 	mov	r4,r17
 400347c:	a00b883a 	mov	r5,r20
 4003480:	400b27c0 	call	400b27c <__divdf3>
 4003484:	d8800f15 	stw	r2,60(sp)
 4003488:	d8c01015 	stw	r3,64(sp)
 400348c:	d8c00e17 	ldw	r3,56(sp)
 4003490:	18000626 	beq	r3,zero,40034ac <_dtoa_r+0x47c>
 4003494:	d9000f17 	ldw	r4,60(sp)
 4003498:	d9401017 	ldw	r5,64(sp)
 400349c:	000d883a 	mov	r6,zero
 40034a0:	01cffc34 	movhi	r7,16368
 40034a4:	400bcc80 	call	400bcc8 <__ledf2>
 40034a8:	10040b16 	blt	r2,zero,40044d8 <_dtoa_r+0x14a8>
 40034ac:	8009883a 	mov	r4,r16
 40034b0:	400ce500 	call	400ce50 <__floatsidf>
 40034b4:	d9800f17 	ldw	r6,60(sp)
 40034b8:	d9c01017 	ldw	r7,64(sp)
 40034bc:	1009883a 	mov	r4,r2
 40034c0:	180b883a 	mov	r5,r3
 40034c4:	400bdbc0 	call	400bdbc <__muldf3>
 40034c8:	000d883a 	mov	r6,zero
 40034cc:	01d00734 	movhi	r7,16412
 40034d0:	1009883a 	mov	r4,r2
 40034d4:	180b883a 	mov	r5,r3
 40034d8:	400a9d00 	call	400a9d0 <__adddf3>
 40034dc:	1021883a 	mov	r16,r2
 40034e0:	d8800617 	ldw	r2,24(sp)
 40034e4:	047f3034 	movhi	r17,64704
 40034e8:	1c63883a 	add	r17,r3,r17
 40034ec:	10031826 	beq	r2,zero,4004150 <_dtoa_r+0x1120>
 40034f0:	d8c00517 	ldw	r3,20(sp)
 40034f4:	db000617 	ldw	r12,24(sp)
 40034f8:	d8c01315 	stw	r3,76(sp)
 40034fc:	d9000b17 	ldw	r4,44(sp)
 4003500:	20038f26 	beq	r4,zero,4004340 <_dtoa_r+0x1310>
 4003504:	60bfffc4 	addi	r2,r12,-1
 4003508:	100490fa 	slli	r2,r2,3
 400350c:	00c10074 	movhi	r3,1025
 4003510:	18feda04 	addi	r3,r3,-1176
 4003514:	1885883a 	add	r2,r3,r2
 4003518:	11800017 	ldw	r6,0(r2)
 400351c:	11c00117 	ldw	r7,4(r2)
 4003520:	d8800717 	ldw	r2,28(sp)
 4003524:	0009883a 	mov	r4,zero
 4003528:	014ff834 	movhi	r5,16352
 400352c:	db001615 	stw	r12,88(sp)
 4003530:	15c00044 	addi	r23,r2,1
 4003534:	400b27c0 	call	400b27c <__divdf3>
 4003538:	800d883a 	mov	r6,r16
 400353c:	880f883a 	mov	r7,r17
 4003540:	1009883a 	mov	r4,r2
 4003544:	180b883a 	mov	r5,r3
 4003548:	400c4d40 	call	400c4d4 <__subdf3>
 400354c:	d9401017 	ldw	r5,64(sp)
 4003550:	d9000f17 	ldw	r4,60(sp)
 4003554:	102b883a 	mov	r21,r2
 4003558:	d8c01215 	stw	r3,72(sp)
 400355c:	400cdd00 	call	400cdd0 <__fixdfsi>
 4003560:	1009883a 	mov	r4,r2
 4003564:	1029883a 	mov	r20,r2
 4003568:	400ce500 	call	400ce50 <__floatsidf>
 400356c:	d9000f17 	ldw	r4,60(sp)
 4003570:	d9401017 	ldw	r5,64(sp)
 4003574:	100d883a 	mov	r6,r2
 4003578:	180f883a 	mov	r7,r3
 400357c:	400c4d40 	call	400c4d4 <__subdf3>
 4003580:	1823883a 	mov	r17,r3
 4003584:	d8c00717 	ldw	r3,28(sp)
 4003588:	d9401217 	ldw	r5,72(sp)
 400358c:	a2000c04 	addi	r8,r20,48
 4003590:	1021883a 	mov	r16,r2
 4003594:	1a000005 	stb	r8,0(r3)
 4003598:	800d883a 	mov	r6,r16
 400359c:	880f883a 	mov	r7,r17
 40035a0:	a809883a 	mov	r4,r21
 40035a4:	4029883a 	mov	r20,r8
 40035a8:	400bbec0 	call	400bbec <__gedf2>
 40035ac:	00841d16 	blt	zero,r2,4004624 <_dtoa_r+0x15f4>
 40035b0:	800d883a 	mov	r6,r16
 40035b4:	880f883a 	mov	r7,r17
 40035b8:	0009883a 	mov	r4,zero
 40035bc:	014ffc34 	movhi	r5,16368
 40035c0:	400c4d40 	call	400c4d4 <__subdf3>
 40035c4:	d9401217 	ldw	r5,72(sp)
 40035c8:	100d883a 	mov	r6,r2
 40035cc:	180f883a 	mov	r7,r3
 40035d0:	a809883a 	mov	r4,r21
 40035d4:	400bbec0 	call	400bbec <__gedf2>
 40035d8:	db001617 	ldw	r12,88(sp)
 40035dc:	00840e16 	blt	zero,r2,4004618 <_dtoa_r+0x15e8>
 40035e0:	00800044 	movi	r2,1
 40035e4:	13006b0e 	bge	r2,r12,4003794 <_dtoa_r+0x764>
 40035e8:	d9000717 	ldw	r4,28(sp)
 40035ec:	dd800f15 	stw	r22,60(sp)
 40035f0:	dcc01015 	stw	r19,64(sp)
 40035f4:	2319883a 	add	r12,r4,r12
 40035f8:	dcc01217 	ldw	r19,72(sp)
 40035fc:	602d883a 	mov	r22,r12
 4003600:	dc801215 	stw	r18,72(sp)
 4003604:	b825883a 	mov	r18,r23
 4003608:	00000906 	br	4003630 <_dtoa_r+0x600>
 400360c:	400c4d40 	call	400c4d4 <__subdf3>
 4003610:	a80d883a 	mov	r6,r21
 4003614:	980f883a 	mov	r7,r19
 4003618:	1009883a 	mov	r4,r2
 400361c:	180b883a 	mov	r5,r3
 4003620:	400bcc80 	call	400bcc8 <__ledf2>
 4003624:	1003e816 	blt	r2,zero,40045c8 <_dtoa_r+0x1598>
 4003628:	b825883a 	mov	r18,r23
 400362c:	bd83e926 	beq	r23,r22,40045d4 <_dtoa_r+0x15a4>
 4003630:	a809883a 	mov	r4,r21
 4003634:	980b883a 	mov	r5,r19
 4003638:	000d883a 	mov	r6,zero
 400363c:	01d00934 	movhi	r7,16420
 4003640:	400bdbc0 	call	400bdbc <__muldf3>
 4003644:	000d883a 	mov	r6,zero
 4003648:	01d00934 	movhi	r7,16420
 400364c:	8009883a 	mov	r4,r16
 4003650:	880b883a 	mov	r5,r17
 4003654:	102b883a 	mov	r21,r2
 4003658:	1827883a 	mov	r19,r3
 400365c:	400bdbc0 	call	400bdbc <__muldf3>
 4003660:	180b883a 	mov	r5,r3
 4003664:	1009883a 	mov	r4,r2
 4003668:	1821883a 	mov	r16,r3
 400366c:	1023883a 	mov	r17,r2
 4003670:	400cdd00 	call	400cdd0 <__fixdfsi>
 4003674:	1009883a 	mov	r4,r2
 4003678:	1029883a 	mov	r20,r2
 400367c:	400ce500 	call	400ce50 <__floatsidf>
 4003680:	8809883a 	mov	r4,r17
 4003684:	800b883a 	mov	r5,r16
 4003688:	100d883a 	mov	r6,r2
 400368c:	180f883a 	mov	r7,r3
 4003690:	400c4d40 	call	400c4d4 <__subdf3>
 4003694:	a5000c04 	addi	r20,r20,48
 4003698:	a80d883a 	mov	r6,r21
 400369c:	980f883a 	mov	r7,r19
 40036a0:	1009883a 	mov	r4,r2
 40036a4:	180b883a 	mov	r5,r3
 40036a8:	95000005 	stb	r20,0(r18)
 40036ac:	1021883a 	mov	r16,r2
 40036b0:	1823883a 	mov	r17,r3
 40036b4:	400bcc80 	call	400bcc8 <__ledf2>
 40036b8:	bdc00044 	addi	r23,r23,1
 40036bc:	800d883a 	mov	r6,r16
 40036c0:	880f883a 	mov	r7,r17
 40036c4:	0009883a 	mov	r4,zero
 40036c8:	014ffc34 	movhi	r5,16368
 40036cc:	103fcf0e 	bge	r2,zero,400360c <__ram_exceptions_end+0xfabff480>
 40036d0:	d8c01317 	ldw	r3,76(sp)
 40036d4:	d8c00515 	stw	r3,20(sp)
 40036d8:	d9400917 	ldw	r5,36(sp)
 40036dc:	e009883a 	mov	r4,fp
 40036e0:	400615c0 	call	400615c <_Bfree>
 40036e4:	d9000517 	ldw	r4,20(sp)
 40036e8:	d9802317 	ldw	r6,140(sp)
 40036ec:	d9c02517 	ldw	r7,148(sp)
 40036f0:	b8000005 	stb	zero,0(r23)
 40036f4:	20800044 	addi	r2,r4,1
 40036f8:	30800015 	stw	r2,0(r6)
 40036fc:	3802aa26 	beq	r7,zero,40041a8 <_dtoa_r+0x1178>
 4003700:	3dc00015 	stw	r23,0(r7)
 4003704:	d8800717 	ldw	r2,28(sp)
 4003708:	003e7906 	br	40030f0 <__ram_exceptions_end+0xfabfef64>
 400370c:	00800434 	movhi	r2,16
 4003710:	10bfffc4 	addi	r2,r2,-1
 4003714:	88a2703a 	and	r17,r17,r2
 4003718:	883e851e 	bne	r17,zero,4003130 <__ram_exceptions_end+0xfabfefa4>
 400371c:	00810074 	movhi	r2,1025
 4003720:	10bebb04 	addi	r2,r2,-1300
 4003724:	003e8406 	br	4003138 <__ram_exceptions_end+0xfabfefac>
 4003728:	10c00204 	addi	r3,r2,8
 400372c:	003e8706 	br	400314c <__ram_exceptions_end+0xfabfefc0>
 4003730:	01400434 	movhi	r5,16
 4003734:	297fffc4 	addi	r5,r5,-1
 4003738:	994a703a 	and	r5,r19,r5
 400373c:	9009883a 	mov	r4,r18
 4003740:	843f0044 	addi	r16,r16,-1023
 4003744:	294ffc34 	orhi	r5,r5,16368
 4003748:	dd800217 	ldw	r22,8(sp)
 400374c:	d8001115 	stw	zero,68(sp)
 4003750:	003ea506 	br	40031e8 <__ram_exceptions_end+0xfabff05c>
 4003754:	00810074 	movhi	r2,1025
 4003758:	10beb204 	addi	r2,r2,-1336
 400375c:	003e6406 	br	40030f0 <__ram_exceptions_end+0xfabfef64>
 4003760:	e0001115 	stw	zero,68(fp)
 4003764:	000b883a 	mov	r5,zero
 4003768:	e009883a 	mov	r4,fp
 400376c:	40060b40 	call	40060b4 <_Balloc>
 4003770:	01bfffc4 	movi	r6,-1
 4003774:	01c00044 	movi	r7,1
 4003778:	d8800715 	stw	r2,28(sp)
 400377c:	d9800c15 	stw	r6,48(sp)
 4003780:	e0801015 	stw	r2,64(fp)
 4003784:	d8000315 	stw	zero,12(sp)
 4003788:	d9c00b15 	stw	r7,44(sp)
 400378c:	d9800615 	stw	r6,24(sp)
 4003790:	d8002215 	stw	zero,136(sp)
 4003794:	d8800117 	ldw	r2,4(sp)
 4003798:	10008916 	blt	r2,zero,40039c0 <_dtoa_r+0x990>
 400379c:	d9000517 	ldw	r4,20(sp)
 40037a0:	00c00384 	movi	r3,14
 40037a4:	19008616 	blt	r3,r4,40039c0 <_dtoa_r+0x990>
 40037a8:	200490fa 	slli	r2,r4,3
 40037ac:	00c10074 	movhi	r3,1025
 40037b0:	d9802217 	ldw	r6,136(sp)
 40037b4:	18feda04 	addi	r3,r3,-1176
 40037b8:	1885883a 	add	r2,r3,r2
 40037bc:	14000017 	ldw	r16,0(r2)
 40037c0:	14400117 	ldw	r17,4(r2)
 40037c4:	30016316 	blt	r6,zero,4003d54 <_dtoa_r+0xd24>
 40037c8:	800d883a 	mov	r6,r16
 40037cc:	880f883a 	mov	r7,r17
 40037d0:	9009883a 	mov	r4,r18
 40037d4:	980b883a 	mov	r5,r19
 40037d8:	400b27c0 	call	400b27c <__divdf3>
 40037dc:	180b883a 	mov	r5,r3
 40037e0:	1009883a 	mov	r4,r2
 40037e4:	400cdd00 	call	400cdd0 <__fixdfsi>
 40037e8:	1009883a 	mov	r4,r2
 40037ec:	102b883a 	mov	r21,r2
 40037f0:	400ce500 	call	400ce50 <__floatsidf>
 40037f4:	800d883a 	mov	r6,r16
 40037f8:	880f883a 	mov	r7,r17
 40037fc:	1009883a 	mov	r4,r2
 4003800:	180b883a 	mov	r5,r3
 4003804:	400bdbc0 	call	400bdbc <__muldf3>
 4003808:	100d883a 	mov	r6,r2
 400380c:	180f883a 	mov	r7,r3
 4003810:	9009883a 	mov	r4,r18
 4003814:	980b883a 	mov	r5,r19
 4003818:	400c4d40 	call	400c4d4 <__subdf3>
 400381c:	d9c00717 	ldw	r7,28(sp)
 4003820:	1009883a 	mov	r4,r2
 4003824:	a8800c04 	addi	r2,r21,48
 4003828:	38800005 	stb	r2,0(r7)
 400382c:	3dc00044 	addi	r23,r7,1
 4003830:	d9c00617 	ldw	r7,24(sp)
 4003834:	01800044 	movi	r6,1
 4003838:	180b883a 	mov	r5,r3
 400383c:	2005883a 	mov	r2,r4
 4003840:	39803826 	beq	r7,r6,4003924 <_dtoa_r+0x8f4>
 4003844:	000d883a 	mov	r6,zero
 4003848:	01d00934 	movhi	r7,16420
 400384c:	400bdbc0 	call	400bdbc <__muldf3>
 4003850:	000d883a 	mov	r6,zero
 4003854:	000f883a 	mov	r7,zero
 4003858:	1009883a 	mov	r4,r2
 400385c:	180b883a 	mov	r5,r3
 4003860:	1025883a 	mov	r18,r2
 4003864:	1827883a 	mov	r19,r3
 4003868:	400bb640 	call	400bb64 <__eqdf2>
 400386c:	103f9a26 	beq	r2,zero,40036d8 <__ram_exceptions_end+0xfabff54c>
 4003870:	d9c00617 	ldw	r7,24(sp)
 4003874:	d8c00717 	ldw	r3,28(sp)
 4003878:	b829883a 	mov	r20,r23
 400387c:	38bfffc4 	addi	r2,r7,-1
 4003880:	18ad883a 	add	r22,r3,r2
 4003884:	00000a06 	br	40038b0 <_dtoa_r+0x880>
 4003888:	400bdbc0 	call	400bdbc <__muldf3>
 400388c:	000d883a 	mov	r6,zero
 4003890:	000f883a 	mov	r7,zero
 4003894:	1009883a 	mov	r4,r2
 4003898:	180b883a 	mov	r5,r3
 400389c:	1025883a 	mov	r18,r2
 40038a0:	1827883a 	mov	r19,r3
 40038a4:	b829883a 	mov	r20,r23
 40038a8:	400bb640 	call	400bb64 <__eqdf2>
 40038ac:	103f8a26 	beq	r2,zero,40036d8 <__ram_exceptions_end+0xfabff54c>
 40038b0:	800d883a 	mov	r6,r16
 40038b4:	880f883a 	mov	r7,r17
 40038b8:	9009883a 	mov	r4,r18
 40038bc:	980b883a 	mov	r5,r19
 40038c0:	400b27c0 	call	400b27c <__divdf3>
 40038c4:	180b883a 	mov	r5,r3
 40038c8:	1009883a 	mov	r4,r2
 40038cc:	400cdd00 	call	400cdd0 <__fixdfsi>
 40038d0:	1009883a 	mov	r4,r2
 40038d4:	102b883a 	mov	r21,r2
 40038d8:	400ce500 	call	400ce50 <__floatsidf>
 40038dc:	800d883a 	mov	r6,r16
 40038e0:	880f883a 	mov	r7,r17
 40038e4:	1009883a 	mov	r4,r2
 40038e8:	180b883a 	mov	r5,r3
 40038ec:	400bdbc0 	call	400bdbc <__muldf3>
 40038f0:	100d883a 	mov	r6,r2
 40038f4:	180f883a 	mov	r7,r3
 40038f8:	9009883a 	mov	r4,r18
 40038fc:	980b883a 	mov	r5,r19
 4003900:	400c4d40 	call	400c4d4 <__subdf3>
 4003904:	aa000c04 	addi	r8,r21,48
 4003908:	a2000005 	stb	r8,0(r20)
 400390c:	000d883a 	mov	r6,zero
 4003910:	01d00934 	movhi	r7,16420
 4003914:	1009883a 	mov	r4,r2
 4003918:	180b883a 	mov	r5,r3
 400391c:	a5c00044 	addi	r23,r20,1
 4003920:	b53fd91e 	bne	r22,r20,4003888 <__ram_exceptions_end+0xfabff6fc>
 4003924:	100d883a 	mov	r6,r2
 4003928:	180f883a 	mov	r7,r3
 400392c:	1009883a 	mov	r4,r2
 4003930:	180b883a 	mov	r5,r3
 4003934:	400a9d00 	call	400a9d0 <__adddf3>
 4003938:	100d883a 	mov	r6,r2
 400393c:	180f883a 	mov	r7,r3
 4003940:	8009883a 	mov	r4,r16
 4003944:	880b883a 	mov	r5,r17
 4003948:	1027883a 	mov	r19,r2
 400394c:	1825883a 	mov	r18,r3
 4003950:	400bcc80 	call	400bcc8 <__ledf2>
 4003954:	10000816 	blt	r2,zero,4003978 <_dtoa_r+0x948>
 4003958:	980d883a 	mov	r6,r19
 400395c:	900f883a 	mov	r7,r18
 4003960:	8009883a 	mov	r4,r16
 4003964:	880b883a 	mov	r5,r17
 4003968:	400bb640 	call	400bb64 <__eqdf2>
 400396c:	103f5a1e 	bne	r2,zero,40036d8 <__ram_exceptions_end+0xfabff54c>
 4003970:	ad40004c 	andi	r21,r21,1
 4003974:	a83f5826 	beq	r21,zero,40036d8 <__ram_exceptions_end+0xfabff54c>
 4003978:	bd3fffc3 	ldbu	r20,-1(r23)
 400397c:	b8bfffc4 	addi	r2,r23,-1
 4003980:	1007883a 	mov	r3,r2
 4003984:	01400e44 	movi	r5,57
 4003988:	d9800717 	ldw	r6,28(sp)
 400398c:	00000506 	br	40039a4 <_dtoa_r+0x974>
 4003990:	18ffffc4 	addi	r3,r3,-1
 4003994:	11824726 	beq	r2,r6,40042b4 <_dtoa_r+0x1284>
 4003998:	1d000003 	ldbu	r20,0(r3)
 400399c:	102f883a 	mov	r23,r2
 40039a0:	10bfffc4 	addi	r2,r2,-1
 40039a4:	a1003fcc 	andi	r4,r20,255
 40039a8:	2100201c 	xori	r4,r4,128
 40039ac:	213fe004 	addi	r4,r4,-128
 40039b0:	217ff726 	beq	r4,r5,4003990 <__ram_exceptions_end+0xfabff804>
 40039b4:	a2000044 	addi	r8,r20,1
 40039b8:	12000005 	stb	r8,0(r2)
 40039bc:	003f4606 	br	40036d8 <__ram_exceptions_end+0xfabff54c>
 40039c0:	d9000b17 	ldw	r4,44(sp)
 40039c4:	2000c826 	beq	r4,zero,4003ce8 <_dtoa_r+0xcb8>
 40039c8:	d9800317 	ldw	r6,12(sp)
 40039cc:	00c00044 	movi	r3,1
 40039d0:	1980f90e 	bge	r3,r6,4003db8 <_dtoa_r+0xd88>
 40039d4:	d8800617 	ldw	r2,24(sp)
 40039d8:	d8c00a17 	ldw	r3,40(sp)
 40039dc:	157fffc4 	addi	r21,r2,-1
 40039e0:	1d41f316 	blt	r3,r21,40041b0 <_dtoa_r+0x1180>
 40039e4:	1d6bc83a 	sub	r21,r3,r21
 40039e8:	d9c00617 	ldw	r7,24(sp)
 40039ec:	3802aa16 	blt	r7,zero,4004498 <_dtoa_r+0x1468>
 40039f0:	dd000817 	ldw	r20,32(sp)
 40039f4:	d8800617 	ldw	r2,24(sp)
 40039f8:	d8c00817 	ldw	r3,32(sp)
 40039fc:	01400044 	movi	r5,1
 4003a00:	e009883a 	mov	r4,fp
 4003a04:	1887883a 	add	r3,r3,r2
 4003a08:	d8c00815 	stw	r3,32(sp)
 4003a0c:	b0ad883a 	add	r22,r22,r2
 4003a10:	40064c00 	call	40064c0 <__i2b>
 4003a14:	1023883a 	mov	r17,r2
 4003a18:	a0000826 	beq	r20,zero,4003a3c <_dtoa_r+0xa0c>
 4003a1c:	0580070e 	bge	zero,r22,4003a3c <_dtoa_r+0xa0c>
 4003a20:	a005883a 	mov	r2,r20
 4003a24:	b500b916 	blt	r22,r20,4003d0c <_dtoa_r+0xcdc>
 4003a28:	d9000817 	ldw	r4,32(sp)
 4003a2c:	a0a9c83a 	sub	r20,r20,r2
 4003a30:	b0adc83a 	sub	r22,r22,r2
 4003a34:	2089c83a 	sub	r4,r4,r2
 4003a38:	d9000815 	stw	r4,32(sp)
 4003a3c:	d9800a17 	ldw	r6,40(sp)
 4003a40:	0181810e 	bge	zero,r6,4004048 <_dtoa_r+0x1018>
 4003a44:	d9c00b17 	ldw	r7,44(sp)
 4003a48:	3800b326 	beq	r7,zero,4003d18 <_dtoa_r+0xce8>
 4003a4c:	a800b226 	beq	r21,zero,4003d18 <_dtoa_r+0xce8>
 4003a50:	880b883a 	mov	r5,r17
 4003a54:	a80d883a 	mov	r6,r21
 4003a58:	e009883a 	mov	r4,fp
 4003a5c:	40066f40 	call	40066f4 <__pow5mult>
 4003a60:	d9800917 	ldw	r6,36(sp)
 4003a64:	100b883a 	mov	r5,r2
 4003a68:	e009883a 	mov	r4,fp
 4003a6c:	1023883a 	mov	r17,r2
 4003a70:	40064fc0 	call	40064fc <__multiply>
 4003a74:	1021883a 	mov	r16,r2
 4003a78:	d8800a17 	ldw	r2,40(sp)
 4003a7c:	d9400917 	ldw	r5,36(sp)
 4003a80:	e009883a 	mov	r4,fp
 4003a84:	1545c83a 	sub	r2,r2,r21
 4003a88:	d8800a15 	stw	r2,40(sp)
 4003a8c:	400615c0 	call	400615c <_Bfree>
 4003a90:	d8c00a17 	ldw	r3,40(sp)
 4003a94:	18009f1e 	bne	r3,zero,4003d14 <_dtoa_r+0xce4>
 4003a98:	05c00044 	movi	r23,1
 4003a9c:	e009883a 	mov	r4,fp
 4003aa0:	b80b883a 	mov	r5,r23
 4003aa4:	40064c00 	call	40064c0 <__i2b>
 4003aa8:	d9000d17 	ldw	r4,52(sp)
 4003aac:	102b883a 	mov	r21,r2
 4003ab0:	2000ce26 	beq	r4,zero,4003dec <_dtoa_r+0xdbc>
 4003ab4:	200d883a 	mov	r6,r4
 4003ab8:	100b883a 	mov	r5,r2
 4003abc:	e009883a 	mov	r4,fp
 4003ac0:	40066f40 	call	40066f4 <__pow5mult>
 4003ac4:	d9800317 	ldw	r6,12(sp)
 4003ac8:	102b883a 	mov	r21,r2
 4003acc:	b981810e 	bge	r23,r6,40040d4 <_dtoa_r+0x10a4>
 4003ad0:	0027883a 	mov	r19,zero
 4003ad4:	a8800417 	ldw	r2,16(r21)
 4003ad8:	05c00804 	movi	r23,32
 4003adc:	10800104 	addi	r2,r2,4
 4003ae0:	1085883a 	add	r2,r2,r2
 4003ae4:	1085883a 	add	r2,r2,r2
 4003ae8:	a885883a 	add	r2,r21,r2
 4003aec:	11000017 	ldw	r4,0(r2)
 4003af0:	40063a80 	call	40063a8 <__hi0bits>
 4003af4:	b885c83a 	sub	r2,r23,r2
 4003af8:	1585883a 	add	r2,r2,r22
 4003afc:	108007cc 	andi	r2,r2,31
 4003b00:	1000b326 	beq	r2,zero,4003dd0 <_dtoa_r+0xda0>
 4003b04:	00c00804 	movi	r3,32
 4003b08:	1887c83a 	sub	r3,r3,r2
 4003b0c:	01000104 	movi	r4,4
 4003b10:	20c2cd0e 	bge	r4,r3,4004648 <_dtoa_r+0x1618>
 4003b14:	00c00704 	movi	r3,28
 4003b18:	1885c83a 	sub	r2,r3,r2
 4003b1c:	d8c00817 	ldw	r3,32(sp)
 4003b20:	a0a9883a 	add	r20,r20,r2
 4003b24:	b0ad883a 	add	r22,r22,r2
 4003b28:	1887883a 	add	r3,r3,r2
 4003b2c:	d8c00815 	stw	r3,32(sp)
 4003b30:	d9800817 	ldw	r6,32(sp)
 4003b34:	0180040e 	bge	zero,r6,4003b48 <_dtoa_r+0xb18>
 4003b38:	800b883a 	mov	r5,r16
 4003b3c:	e009883a 	mov	r4,fp
 4003b40:	40068340 	call	4006834 <__lshift>
 4003b44:	1021883a 	mov	r16,r2
 4003b48:	0580050e 	bge	zero,r22,4003b60 <_dtoa_r+0xb30>
 4003b4c:	a80b883a 	mov	r5,r21
 4003b50:	b00d883a 	mov	r6,r22
 4003b54:	e009883a 	mov	r4,fp
 4003b58:	40068340 	call	4006834 <__lshift>
 4003b5c:	102b883a 	mov	r21,r2
 4003b60:	d9c00e17 	ldw	r7,56(sp)
 4003b64:	3801211e 	bne	r7,zero,4003fec <_dtoa_r+0xfbc>
 4003b68:	d9800617 	ldw	r6,24(sp)
 4003b6c:	0181380e 	bge	zero,r6,4004050 <_dtoa_r+0x1020>
 4003b70:	d8c00b17 	ldw	r3,44(sp)
 4003b74:	1800ab1e 	bne	r3,zero,4003e24 <_dtoa_r+0xdf4>
 4003b78:	dc800717 	ldw	r18,28(sp)
 4003b7c:	dcc00617 	ldw	r19,24(sp)
 4003b80:	9029883a 	mov	r20,r18
 4003b84:	00000206 	br	4003b90 <_dtoa_r+0xb60>
 4003b88:	40061840 	call	4006184 <__multadd>
 4003b8c:	1021883a 	mov	r16,r2
 4003b90:	a80b883a 	mov	r5,r21
 4003b94:	8009883a 	mov	r4,r16
 4003b98:	4002e300 	call	4002e30 <quorem>
 4003b9c:	10800c04 	addi	r2,r2,48
 4003ba0:	90800005 	stb	r2,0(r18)
 4003ba4:	94800044 	addi	r18,r18,1
 4003ba8:	9507c83a 	sub	r3,r18,r20
 4003bac:	000f883a 	mov	r7,zero
 4003bb0:	01800284 	movi	r6,10
 4003bb4:	800b883a 	mov	r5,r16
 4003bb8:	e009883a 	mov	r4,fp
 4003bbc:	1cfff216 	blt	r3,r19,4003b88 <__ram_exceptions_end+0xfabff9fc>
 4003bc0:	1011883a 	mov	r8,r2
 4003bc4:	d8800617 	ldw	r2,24(sp)
 4003bc8:	0082370e 	bge	zero,r2,40044a8 <_dtoa_r+0x1478>
 4003bcc:	d9000717 	ldw	r4,28(sp)
 4003bd0:	0025883a 	mov	r18,zero
 4003bd4:	20af883a 	add	r23,r4,r2
 4003bd8:	01800044 	movi	r6,1
 4003bdc:	800b883a 	mov	r5,r16
 4003be0:	e009883a 	mov	r4,fp
 4003be4:	da001715 	stw	r8,92(sp)
 4003be8:	40068340 	call	4006834 <__lshift>
 4003bec:	a80b883a 	mov	r5,r21
 4003bf0:	1009883a 	mov	r4,r2
 4003bf4:	d8800915 	stw	r2,36(sp)
 4003bf8:	400697c0 	call	400697c <__mcmp>
 4003bfc:	da001717 	ldw	r8,92(sp)
 4003c00:	0081800e 	bge	zero,r2,4004204 <_dtoa_r+0x11d4>
 4003c04:	b93fffc3 	ldbu	r4,-1(r23)
 4003c08:	b8bfffc4 	addi	r2,r23,-1
 4003c0c:	1007883a 	mov	r3,r2
 4003c10:	01800e44 	movi	r6,57
 4003c14:	d9c00717 	ldw	r7,28(sp)
 4003c18:	00000506 	br	4003c30 <_dtoa_r+0xc00>
 4003c1c:	18ffffc4 	addi	r3,r3,-1
 4003c20:	11c12326 	beq	r2,r7,40040b0 <_dtoa_r+0x1080>
 4003c24:	19000003 	ldbu	r4,0(r3)
 4003c28:	102f883a 	mov	r23,r2
 4003c2c:	10bfffc4 	addi	r2,r2,-1
 4003c30:	21403fcc 	andi	r5,r4,255
 4003c34:	2940201c 	xori	r5,r5,128
 4003c38:	297fe004 	addi	r5,r5,-128
 4003c3c:	29bff726 	beq	r5,r6,4003c1c <__ram_exceptions_end+0xfabffa90>
 4003c40:	21000044 	addi	r4,r4,1
 4003c44:	11000005 	stb	r4,0(r2)
 4003c48:	a80b883a 	mov	r5,r21
 4003c4c:	e009883a 	mov	r4,fp
 4003c50:	400615c0 	call	400615c <_Bfree>
 4003c54:	883ea026 	beq	r17,zero,40036d8 <__ram_exceptions_end+0xfabff54c>
 4003c58:	90000426 	beq	r18,zero,4003c6c <_dtoa_r+0xc3c>
 4003c5c:	94400326 	beq	r18,r17,4003c6c <_dtoa_r+0xc3c>
 4003c60:	900b883a 	mov	r5,r18
 4003c64:	e009883a 	mov	r4,fp
 4003c68:	400615c0 	call	400615c <_Bfree>
 4003c6c:	880b883a 	mov	r5,r17
 4003c70:	e009883a 	mov	r4,fp
 4003c74:	400615c0 	call	400615c <_Bfree>
 4003c78:	003e9706 	br	40036d8 <__ram_exceptions_end+0xfabff54c>
 4003c7c:	01800044 	movi	r6,1
 4003c80:	d9800e15 	stw	r6,56(sp)
 4003c84:	003d9606 	br	40032e0 <__ram_exceptions_end+0xfabff154>
 4003c88:	d8800817 	ldw	r2,32(sp)
 4003c8c:	d8c00517 	ldw	r3,20(sp)
 4003c90:	d8000d15 	stw	zero,52(sp)
 4003c94:	10c5c83a 	sub	r2,r2,r3
 4003c98:	00c9c83a 	sub	r4,zero,r3
 4003c9c:	d8800815 	stw	r2,32(sp)
 4003ca0:	d9000a15 	stw	r4,40(sp)
 4003ca4:	003d9706 	br	4003304 <__ram_exceptions_end+0xfabff178>
 4003ca8:	05adc83a 	sub	r22,zero,r22
 4003cac:	dd800815 	stw	r22,32(sp)
 4003cb0:	002d883a 	mov	r22,zero
 4003cb4:	003d8e06 	br	40032f0 <__ram_exceptions_end+0xfabff164>
 4003cb8:	d9000517 	ldw	r4,20(sp)
 4003cbc:	400ce500 	call	400ce50 <__floatsidf>
 4003cc0:	100d883a 	mov	r6,r2
 4003cc4:	180f883a 	mov	r7,r3
 4003cc8:	a009883a 	mov	r4,r20
 4003ccc:	880b883a 	mov	r5,r17
 4003cd0:	400bb640 	call	400bb64 <__eqdf2>
 4003cd4:	103d7126 	beq	r2,zero,400329c <__ram_exceptions_end+0xfabff110>
 4003cd8:	d9c00517 	ldw	r7,20(sp)
 4003cdc:	39ffffc4 	addi	r7,r7,-1
 4003ce0:	d9c00515 	stw	r7,20(sp)
 4003ce4:	003d6d06 	br	400329c <__ram_exceptions_end+0xfabff110>
 4003ce8:	dd400a17 	ldw	r21,40(sp)
 4003cec:	dd000817 	ldw	r20,32(sp)
 4003cf0:	0023883a 	mov	r17,zero
 4003cf4:	003f4806 	br	4003a18 <__ram_exceptions_end+0xfabff88c>
 4003cf8:	10e3c83a 	sub	r17,r2,r3
 4003cfc:	9448983a 	sll	r4,r18,r17
 4003d00:	003d3206 	br	40031cc <__ram_exceptions_end+0xfabff040>
 4003d04:	d8000e15 	stw	zero,56(sp)
 4003d08:	003d7506 	br	40032e0 <__ram_exceptions_end+0xfabff154>
 4003d0c:	b005883a 	mov	r2,r22
 4003d10:	003f4506 	br	4003a28 <__ram_exceptions_end+0xfabff89c>
 4003d14:	dc000915 	stw	r16,36(sp)
 4003d18:	d9800a17 	ldw	r6,40(sp)
 4003d1c:	d9400917 	ldw	r5,36(sp)
 4003d20:	e009883a 	mov	r4,fp
 4003d24:	40066f40 	call	40066f4 <__pow5mult>
 4003d28:	1021883a 	mov	r16,r2
 4003d2c:	003f5a06 	br	4003a98 <__ram_exceptions_end+0xfabff90c>
 4003d30:	01c00044 	movi	r7,1
 4003d34:	d9c00b15 	stw	r7,44(sp)
 4003d38:	d8802217 	ldw	r2,136(sp)
 4003d3c:	0081280e 	bge	zero,r2,40041e0 <_dtoa_r+0x11b0>
 4003d40:	100d883a 	mov	r6,r2
 4003d44:	1021883a 	mov	r16,r2
 4003d48:	d8800c15 	stw	r2,48(sp)
 4003d4c:	d8800615 	stw	r2,24(sp)
 4003d50:	003d8806 	br	4003374 <__ram_exceptions_end+0xfabff1e8>
 4003d54:	d8800617 	ldw	r2,24(sp)
 4003d58:	00be9b16 	blt	zero,r2,40037c8 <__ram_exceptions_end+0xfabff63c>
 4003d5c:	10010f1e 	bne	r2,zero,400419c <_dtoa_r+0x116c>
 4003d60:	880b883a 	mov	r5,r17
 4003d64:	000d883a 	mov	r6,zero
 4003d68:	01d00534 	movhi	r7,16404
 4003d6c:	8009883a 	mov	r4,r16
 4003d70:	400bdbc0 	call	400bdbc <__muldf3>
 4003d74:	900d883a 	mov	r6,r18
 4003d78:	980f883a 	mov	r7,r19
 4003d7c:	1009883a 	mov	r4,r2
 4003d80:	180b883a 	mov	r5,r3
 4003d84:	400bbec0 	call	400bbec <__gedf2>
 4003d88:	002b883a 	mov	r21,zero
 4003d8c:	0023883a 	mov	r17,zero
 4003d90:	1000bf16 	blt	r2,zero,4004090 <_dtoa_r+0x1060>
 4003d94:	d9802217 	ldw	r6,136(sp)
 4003d98:	ddc00717 	ldw	r23,28(sp)
 4003d9c:	018c303a 	nor	r6,zero,r6
 4003da0:	d9800515 	stw	r6,20(sp)
 4003da4:	a80b883a 	mov	r5,r21
 4003da8:	e009883a 	mov	r4,fp
 4003dac:	400615c0 	call	400615c <_Bfree>
 4003db0:	883e4926 	beq	r17,zero,40036d8 <__ram_exceptions_end+0xfabff54c>
 4003db4:	003fad06 	br	4003c6c <__ram_exceptions_end+0xfabffae0>
 4003db8:	d9c01117 	ldw	r7,68(sp)
 4003dbc:	3801bc26 	beq	r7,zero,40044b0 <_dtoa_r+0x1480>
 4003dc0:	10810cc4 	addi	r2,r2,1075
 4003dc4:	dd400a17 	ldw	r21,40(sp)
 4003dc8:	dd000817 	ldw	r20,32(sp)
 4003dcc:	003f0a06 	br	40039f8 <__ram_exceptions_end+0xfabff86c>
 4003dd0:	00800704 	movi	r2,28
 4003dd4:	d9000817 	ldw	r4,32(sp)
 4003dd8:	a0a9883a 	add	r20,r20,r2
 4003ddc:	b0ad883a 	add	r22,r22,r2
 4003de0:	2089883a 	add	r4,r4,r2
 4003de4:	d9000815 	stw	r4,32(sp)
 4003de8:	003f5106 	br	4003b30 <__ram_exceptions_end+0xfabff9a4>
 4003dec:	d8c00317 	ldw	r3,12(sp)
 4003df0:	b8c1fc0e 	bge	r23,r3,40045e4 <_dtoa_r+0x15b4>
 4003df4:	0027883a 	mov	r19,zero
 4003df8:	b805883a 	mov	r2,r23
 4003dfc:	003f3e06 	br	4003af8 <__ram_exceptions_end+0xfabff96c>
 4003e00:	880b883a 	mov	r5,r17
 4003e04:	e009883a 	mov	r4,fp
 4003e08:	000f883a 	mov	r7,zero
 4003e0c:	01800284 	movi	r6,10
 4003e10:	40061840 	call	4006184 <__multadd>
 4003e14:	d9000c17 	ldw	r4,48(sp)
 4003e18:	1023883a 	mov	r17,r2
 4003e1c:	0102040e 	bge	zero,r4,4004630 <_dtoa_r+0x1600>
 4003e20:	d9000615 	stw	r4,24(sp)
 4003e24:	0500050e 	bge	zero,r20,4003e3c <_dtoa_r+0xe0c>
 4003e28:	880b883a 	mov	r5,r17
 4003e2c:	a00d883a 	mov	r6,r20
 4003e30:	e009883a 	mov	r4,fp
 4003e34:	40068340 	call	4006834 <__lshift>
 4003e38:	1023883a 	mov	r17,r2
 4003e3c:	9801241e 	bne	r19,zero,40042d0 <_dtoa_r+0x12a0>
 4003e40:	8829883a 	mov	r20,r17
 4003e44:	d9000617 	ldw	r4,24(sp)
 4003e48:	dcc00717 	ldw	r19,28(sp)
 4003e4c:	9480004c 	andi	r18,r18,1
 4003e50:	20bfffc4 	addi	r2,r4,-1
 4003e54:	9885883a 	add	r2,r19,r2
 4003e58:	d8800415 	stw	r2,16(sp)
 4003e5c:	dc800615 	stw	r18,24(sp)
 4003e60:	a80b883a 	mov	r5,r21
 4003e64:	8009883a 	mov	r4,r16
 4003e68:	4002e300 	call	4002e30 <quorem>
 4003e6c:	880b883a 	mov	r5,r17
 4003e70:	8009883a 	mov	r4,r16
 4003e74:	102f883a 	mov	r23,r2
 4003e78:	400697c0 	call	400697c <__mcmp>
 4003e7c:	a80b883a 	mov	r5,r21
 4003e80:	a00d883a 	mov	r6,r20
 4003e84:	e009883a 	mov	r4,fp
 4003e88:	102d883a 	mov	r22,r2
 4003e8c:	40069dc0 	call	40069dc <__mdiff>
 4003e90:	1007883a 	mov	r3,r2
 4003e94:	10800317 	ldw	r2,12(r2)
 4003e98:	bc800c04 	addi	r18,r23,48
 4003e9c:	180b883a 	mov	r5,r3
 4003ea0:	10004e1e 	bne	r2,zero,4003fdc <_dtoa_r+0xfac>
 4003ea4:	8009883a 	mov	r4,r16
 4003ea8:	d8c01615 	stw	r3,88(sp)
 4003eac:	400697c0 	call	400697c <__mcmp>
 4003eb0:	d8c01617 	ldw	r3,88(sp)
 4003eb4:	e009883a 	mov	r4,fp
 4003eb8:	d8801615 	stw	r2,88(sp)
 4003ebc:	180b883a 	mov	r5,r3
 4003ec0:	400615c0 	call	400615c <_Bfree>
 4003ec4:	d8801617 	ldw	r2,88(sp)
 4003ec8:	1000041e 	bne	r2,zero,4003edc <_dtoa_r+0xeac>
 4003ecc:	d9800317 	ldw	r6,12(sp)
 4003ed0:	3000021e 	bne	r6,zero,4003edc <_dtoa_r+0xeac>
 4003ed4:	d8c00617 	ldw	r3,24(sp)
 4003ed8:	18003726 	beq	r3,zero,4003fb8 <_dtoa_r+0xf88>
 4003edc:	b0002016 	blt	r22,zero,4003f60 <_dtoa_r+0xf30>
 4003ee0:	b000041e 	bne	r22,zero,4003ef4 <_dtoa_r+0xec4>
 4003ee4:	d9000317 	ldw	r4,12(sp)
 4003ee8:	2000021e 	bne	r4,zero,4003ef4 <_dtoa_r+0xec4>
 4003eec:	d8c00617 	ldw	r3,24(sp)
 4003ef0:	18001b26 	beq	r3,zero,4003f60 <_dtoa_r+0xf30>
 4003ef4:	00810716 	blt	zero,r2,4004314 <_dtoa_r+0x12e4>
 4003ef8:	d8c00417 	ldw	r3,16(sp)
 4003efc:	9d800044 	addi	r22,r19,1
 4003f00:	9c800005 	stb	r18,0(r19)
 4003f04:	b02f883a 	mov	r23,r22
 4003f08:	98c10626 	beq	r19,r3,4004324 <_dtoa_r+0x12f4>
 4003f0c:	800b883a 	mov	r5,r16
 4003f10:	000f883a 	mov	r7,zero
 4003f14:	01800284 	movi	r6,10
 4003f18:	e009883a 	mov	r4,fp
 4003f1c:	40061840 	call	4006184 <__multadd>
 4003f20:	1021883a 	mov	r16,r2
 4003f24:	000f883a 	mov	r7,zero
 4003f28:	01800284 	movi	r6,10
 4003f2c:	880b883a 	mov	r5,r17
 4003f30:	e009883a 	mov	r4,fp
 4003f34:	8d002526 	beq	r17,r20,4003fcc <_dtoa_r+0xf9c>
 4003f38:	40061840 	call	4006184 <__multadd>
 4003f3c:	a00b883a 	mov	r5,r20
 4003f40:	000f883a 	mov	r7,zero
 4003f44:	01800284 	movi	r6,10
 4003f48:	e009883a 	mov	r4,fp
 4003f4c:	1023883a 	mov	r17,r2
 4003f50:	40061840 	call	4006184 <__multadd>
 4003f54:	1029883a 	mov	r20,r2
 4003f58:	b027883a 	mov	r19,r22
 4003f5c:	003fc006 	br	4003e60 <__ram_exceptions_end+0xfabffcd4>
 4003f60:	9011883a 	mov	r8,r18
 4003f64:	00800e0e 	bge	zero,r2,4003fa0 <_dtoa_r+0xf70>
 4003f68:	800b883a 	mov	r5,r16
 4003f6c:	01800044 	movi	r6,1
 4003f70:	e009883a 	mov	r4,fp
 4003f74:	da001715 	stw	r8,92(sp)
 4003f78:	40068340 	call	4006834 <__lshift>
 4003f7c:	a80b883a 	mov	r5,r21
 4003f80:	1009883a 	mov	r4,r2
 4003f84:	1021883a 	mov	r16,r2
 4003f88:	400697c0 	call	400697c <__mcmp>
 4003f8c:	da001717 	ldw	r8,92(sp)
 4003f90:	0081960e 	bge	zero,r2,40045ec <_dtoa_r+0x15bc>
 4003f94:	00800e44 	movi	r2,57
 4003f98:	40817026 	beq	r8,r2,400455c <_dtoa_r+0x152c>
 4003f9c:	ba000c44 	addi	r8,r23,49
 4003fa0:	8825883a 	mov	r18,r17
 4003fa4:	9dc00044 	addi	r23,r19,1
 4003fa8:	9a000005 	stb	r8,0(r19)
 4003fac:	a023883a 	mov	r17,r20
 4003fb0:	dc000915 	stw	r16,36(sp)
 4003fb4:	003f2406 	br	4003c48 <__ram_exceptions_end+0xfabffabc>
 4003fb8:	00800e44 	movi	r2,57
 4003fbc:	9011883a 	mov	r8,r18
 4003fc0:	90816626 	beq	r18,r2,400455c <_dtoa_r+0x152c>
 4003fc4:	05bff516 	blt	zero,r22,4003f9c <__ram_exceptions_end+0xfabffe10>
 4003fc8:	003ff506 	br	4003fa0 <__ram_exceptions_end+0xfabffe14>
 4003fcc:	40061840 	call	4006184 <__multadd>
 4003fd0:	1023883a 	mov	r17,r2
 4003fd4:	1029883a 	mov	r20,r2
 4003fd8:	003fdf06 	br	4003f58 <__ram_exceptions_end+0xfabffdcc>
 4003fdc:	e009883a 	mov	r4,fp
 4003fe0:	400615c0 	call	400615c <_Bfree>
 4003fe4:	00800044 	movi	r2,1
 4003fe8:	003fbc06 	br	4003edc <__ram_exceptions_end+0xfabffd50>
 4003fec:	a80b883a 	mov	r5,r21
 4003ff0:	8009883a 	mov	r4,r16
 4003ff4:	400697c0 	call	400697c <__mcmp>
 4003ff8:	103edb0e 	bge	r2,zero,4003b68 <__ram_exceptions_end+0xfabff9dc>
 4003ffc:	800b883a 	mov	r5,r16
 4004000:	000f883a 	mov	r7,zero
 4004004:	01800284 	movi	r6,10
 4004008:	e009883a 	mov	r4,fp
 400400c:	40061840 	call	4006184 <__multadd>
 4004010:	1021883a 	mov	r16,r2
 4004014:	d8800517 	ldw	r2,20(sp)
 4004018:	d8c00b17 	ldw	r3,44(sp)
 400401c:	10bfffc4 	addi	r2,r2,-1
 4004020:	d8800515 	stw	r2,20(sp)
 4004024:	183f761e 	bne	r3,zero,4003e00 <__ram_exceptions_end+0xfabffc74>
 4004028:	d9000c17 	ldw	r4,48(sp)
 400402c:	0101730e 	bge	zero,r4,40045fc <_dtoa_r+0x15cc>
 4004030:	d9000615 	stw	r4,24(sp)
 4004034:	003ed006 	br	4003b78 <__ram_exceptions_end+0xfabff9ec>
 4004038:	00800084 	movi	r2,2
 400403c:	3081861e 	bne	r6,r2,4004658 <_dtoa_r+0x1628>
 4004040:	d8000b15 	stw	zero,44(sp)
 4004044:	003f3c06 	br	4003d38 <__ram_exceptions_end+0xfabffbac>
 4004048:	dc000917 	ldw	r16,36(sp)
 400404c:	003e9206 	br	4003a98 <__ram_exceptions_end+0xfabff90c>
 4004050:	d9c00317 	ldw	r7,12(sp)
 4004054:	00800084 	movi	r2,2
 4004058:	11fec50e 	bge	r2,r7,4003b70 <__ram_exceptions_end+0xfabff9e4>
 400405c:	d9000617 	ldw	r4,24(sp)
 4004060:	20013c1e 	bne	r4,zero,4004554 <_dtoa_r+0x1524>
 4004064:	a80b883a 	mov	r5,r21
 4004068:	000f883a 	mov	r7,zero
 400406c:	01800144 	movi	r6,5
 4004070:	e009883a 	mov	r4,fp
 4004074:	40061840 	call	4006184 <__multadd>
 4004078:	100b883a 	mov	r5,r2
 400407c:	8009883a 	mov	r4,r16
 4004080:	102b883a 	mov	r21,r2
 4004084:	400697c0 	call	400697c <__mcmp>
 4004088:	dc000915 	stw	r16,36(sp)
 400408c:	00bf410e 	bge	zero,r2,4003d94 <__ram_exceptions_end+0xfabffc08>
 4004090:	d9c00717 	ldw	r7,28(sp)
 4004094:	00800c44 	movi	r2,49
 4004098:	38800005 	stb	r2,0(r7)
 400409c:	d8800517 	ldw	r2,20(sp)
 40040a0:	3dc00044 	addi	r23,r7,1
 40040a4:	10800044 	addi	r2,r2,1
 40040a8:	d8800515 	stw	r2,20(sp)
 40040ac:	003f3d06 	br	4003da4 <__ram_exceptions_end+0xfabffc18>
 40040b0:	d9800517 	ldw	r6,20(sp)
 40040b4:	d9c00717 	ldw	r7,28(sp)
 40040b8:	00800c44 	movi	r2,49
 40040bc:	31800044 	addi	r6,r6,1
 40040c0:	d9800515 	stw	r6,20(sp)
 40040c4:	38800005 	stb	r2,0(r7)
 40040c8:	003edf06 	br	4003c48 <__ram_exceptions_end+0xfabffabc>
 40040cc:	d8000b15 	stw	zero,44(sp)
 40040d0:	003c9f06 	br	4003350 <__ram_exceptions_end+0xfabff1c4>
 40040d4:	903e7e1e 	bne	r18,zero,4003ad0 <__ram_exceptions_end+0xfabff944>
 40040d8:	00800434 	movhi	r2,16
 40040dc:	10bfffc4 	addi	r2,r2,-1
 40040e0:	9884703a 	and	r2,r19,r2
 40040e4:	1000ea1e 	bne	r2,zero,4004490 <_dtoa_r+0x1460>
 40040e8:	9cdffc2c 	andhi	r19,r19,32752
 40040ec:	9800e826 	beq	r19,zero,4004490 <_dtoa_r+0x1460>
 40040f0:	d9c00817 	ldw	r7,32(sp)
 40040f4:	b5800044 	addi	r22,r22,1
 40040f8:	04c00044 	movi	r19,1
 40040fc:	39c00044 	addi	r7,r7,1
 4004100:	d9c00815 	stw	r7,32(sp)
 4004104:	d8800d17 	ldw	r2,52(sp)
 4004108:	103e721e 	bne	r2,zero,4003ad4 <__ram_exceptions_end+0xfabff948>
 400410c:	00800044 	movi	r2,1
 4004110:	003e7906 	br	4003af8 <__ram_exceptions_end+0xfabff96c>
 4004114:	8009883a 	mov	r4,r16
 4004118:	400ce500 	call	400ce50 <__floatsidf>
 400411c:	d9800f17 	ldw	r6,60(sp)
 4004120:	d9c01017 	ldw	r7,64(sp)
 4004124:	1009883a 	mov	r4,r2
 4004128:	180b883a 	mov	r5,r3
 400412c:	400bdbc0 	call	400bdbc <__muldf3>
 4004130:	000d883a 	mov	r6,zero
 4004134:	01d00734 	movhi	r7,16412
 4004138:	1009883a 	mov	r4,r2
 400413c:	180b883a 	mov	r5,r3
 4004140:	400a9d00 	call	400a9d0 <__adddf3>
 4004144:	047f3034 	movhi	r17,64704
 4004148:	1021883a 	mov	r16,r2
 400414c:	1c63883a 	add	r17,r3,r17
 4004150:	d9000f17 	ldw	r4,60(sp)
 4004154:	d9401017 	ldw	r5,64(sp)
 4004158:	000d883a 	mov	r6,zero
 400415c:	01d00534 	movhi	r7,16404
 4004160:	400c4d40 	call	400c4d4 <__subdf3>
 4004164:	800d883a 	mov	r6,r16
 4004168:	880f883a 	mov	r7,r17
 400416c:	1009883a 	mov	r4,r2
 4004170:	180b883a 	mov	r5,r3
 4004174:	102b883a 	mov	r21,r2
 4004178:	1829883a 	mov	r20,r3
 400417c:	400bbec0 	call	400bbec <__gedf2>
 4004180:	00806c16 	blt	zero,r2,4004334 <_dtoa_r+0x1304>
 4004184:	89e0003c 	xorhi	r7,r17,32768
 4004188:	800d883a 	mov	r6,r16
 400418c:	a809883a 	mov	r4,r21
 4004190:	a00b883a 	mov	r5,r20
 4004194:	400bcc80 	call	400bcc8 <__ledf2>
 4004198:	103d7e0e 	bge	r2,zero,4003794 <__ram_exceptions_end+0xfabff608>
 400419c:	002b883a 	mov	r21,zero
 40041a0:	0023883a 	mov	r17,zero
 40041a4:	003efb06 	br	4003d94 <__ram_exceptions_end+0xfabffc08>
 40041a8:	d8800717 	ldw	r2,28(sp)
 40041ac:	003bd006 	br	40030f0 <__ram_exceptions_end+0xfabfef64>
 40041b0:	d9000a17 	ldw	r4,40(sp)
 40041b4:	d9800d17 	ldw	r6,52(sp)
 40041b8:	dd400a15 	stw	r21,40(sp)
 40041bc:	a905c83a 	sub	r2,r21,r4
 40041c0:	308d883a 	add	r6,r6,r2
 40041c4:	d9800d15 	stw	r6,52(sp)
 40041c8:	002b883a 	mov	r21,zero
 40041cc:	003e0606 	br	40039e8 <__ram_exceptions_end+0xfabff85c>
 40041d0:	9023883a 	mov	r17,r18
 40041d4:	9829883a 	mov	r20,r19
 40041d8:	04000084 	movi	r16,2
 40041dc:	003c9206 	br	4003428 <__ram_exceptions_end+0xfabff29c>
 40041e0:	04000044 	movi	r16,1
 40041e4:	dc000c15 	stw	r16,48(sp)
 40041e8:	dc000615 	stw	r16,24(sp)
 40041ec:	dc002215 	stw	r16,136(sp)
 40041f0:	e0001115 	stw	zero,68(fp)
 40041f4:	000b883a 	mov	r5,zero
 40041f8:	003c6906 	br	40033a0 <__ram_exceptions_end+0xfabff214>
 40041fc:	3021883a 	mov	r16,r6
 4004200:	003ffb06 	br	40041f0 <__ram_exceptions_end+0xfac00064>
 4004204:	1000021e 	bne	r2,zero,4004210 <_dtoa_r+0x11e0>
 4004208:	4200004c 	andi	r8,r8,1
 400420c:	403e7d1e 	bne	r8,zero,4003c04 <__ram_exceptions_end+0xfabffa78>
 4004210:	01000c04 	movi	r4,48
 4004214:	00000106 	br	400421c <_dtoa_r+0x11ec>
 4004218:	102f883a 	mov	r23,r2
 400421c:	b8bfffc4 	addi	r2,r23,-1
 4004220:	10c00007 	ldb	r3,0(r2)
 4004224:	193ffc26 	beq	r3,r4,4004218 <__ram_exceptions_end+0xfac0008c>
 4004228:	003e8706 	br	4003c48 <__ram_exceptions_end+0xfabffabc>
 400422c:	d8800517 	ldw	r2,20(sp)
 4004230:	00a3c83a 	sub	r17,zero,r2
 4004234:	8800a426 	beq	r17,zero,40044c8 <_dtoa_r+0x1498>
 4004238:	888003cc 	andi	r2,r17,15
 400423c:	100490fa 	slli	r2,r2,3
 4004240:	00c10074 	movhi	r3,1025
 4004244:	18feda04 	addi	r3,r3,-1176
 4004248:	1885883a 	add	r2,r3,r2
 400424c:	11800017 	ldw	r6,0(r2)
 4004250:	11c00117 	ldw	r7,4(r2)
 4004254:	9009883a 	mov	r4,r18
 4004258:	980b883a 	mov	r5,r19
 400425c:	8823d13a 	srai	r17,r17,4
 4004260:	400bdbc0 	call	400bdbc <__muldf3>
 4004264:	d8800f15 	stw	r2,60(sp)
 4004268:	d8c01015 	stw	r3,64(sp)
 400426c:	8800e826 	beq	r17,zero,4004610 <_dtoa_r+0x15e0>
 4004270:	05010074 	movhi	r20,1025
 4004274:	a53ed004 	addi	r20,r20,-1216
 4004278:	04000084 	movi	r16,2
 400427c:	8980004c 	andi	r6,r17,1
 4004280:	1009883a 	mov	r4,r2
 4004284:	8823d07a 	srai	r17,r17,1
 4004288:	180b883a 	mov	r5,r3
 400428c:	30000426 	beq	r6,zero,40042a0 <_dtoa_r+0x1270>
 4004290:	a1800017 	ldw	r6,0(r20)
 4004294:	a1c00117 	ldw	r7,4(r20)
 4004298:	84000044 	addi	r16,r16,1
 400429c:	400bdbc0 	call	400bdbc <__muldf3>
 40042a0:	a5000204 	addi	r20,r20,8
 40042a4:	883ff51e 	bne	r17,zero,400427c <__ram_exceptions_end+0xfac000f0>
 40042a8:	d8800f15 	stw	r2,60(sp)
 40042ac:	d8c01015 	stw	r3,64(sp)
 40042b0:	003c7606 	br	400348c <__ram_exceptions_end+0xfabff300>
 40042b4:	00c00c04 	movi	r3,48
 40042b8:	10c00005 	stb	r3,0(r2)
 40042bc:	d8c00517 	ldw	r3,20(sp)
 40042c0:	bd3fffc3 	ldbu	r20,-1(r23)
 40042c4:	18c00044 	addi	r3,r3,1
 40042c8:	d8c00515 	stw	r3,20(sp)
 40042cc:	003db906 	br	40039b4 <__ram_exceptions_end+0xfabff828>
 40042d0:	89400117 	ldw	r5,4(r17)
 40042d4:	e009883a 	mov	r4,fp
 40042d8:	40060b40 	call	40060b4 <_Balloc>
 40042dc:	89800417 	ldw	r6,16(r17)
 40042e0:	89400304 	addi	r5,r17,12
 40042e4:	11000304 	addi	r4,r2,12
 40042e8:	31800084 	addi	r6,r6,2
 40042ec:	318d883a 	add	r6,r6,r6
 40042f0:	318d883a 	add	r6,r6,r6
 40042f4:	1027883a 	mov	r19,r2
 40042f8:	4005e440 	call	4005e44 <memcpy>
 40042fc:	01800044 	movi	r6,1
 4004300:	980b883a 	mov	r5,r19
 4004304:	e009883a 	mov	r4,fp
 4004308:	40068340 	call	4006834 <__lshift>
 400430c:	1029883a 	mov	r20,r2
 4004310:	003ecc06 	br	4003e44 <__ram_exceptions_end+0xfabffcb8>
 4004314:	00800e44 	movi	r2,57
 4004318:	90809026 	beq	r18,r2,400455c <_dtoa_r+0x152c>
 400431c:	92000044 	addi	r8,r18,1
 4004320:	003f1f06 	br	4003fa0 <__ram_exceptions_end+0xfabffe14>
 4004324:	9011883a 	mov	r8,r18
 4004328:	8825883a 	mov	r18,r17
 400432c:	a023883a 	mov	r17,r20
 4004330:	003e2906 	br	4003bd8 <__ram_exceptions_end+0xfabffa4c>
 4004334:	002b883a 	mov	r21,zero
 4004338:	0023883a 	mov	r17,zero
 400433c:	003f5406 	br	4004090 <__ram_exceptions_end+0xfabfff04>
 4004340:	61bfffc4 	addi	r6,r12,-1
 4004344:	300490fa 	slli	r2,r6,3
 4004348:	00c10074 	movhi	r3,1025
 400434c:	18feda04 	addi	r3,r3,-1176
 4004350:	1885883a 	add	r2,r3,r2
 4004354:	11000017 	ldw	r4,0(r2)
 4004358:	11400117 	ldw	r5,4(r2)
 400435c:	d8800717 	ldw	r2,28(sp)
 4004360:	880f883a 	mov	r7,r17
 4004364:	d9801215 	stw	r6,72(sp)
 4004368:	800d883a 	mov	r6,r16
 400436c:	db001615 	stw	r12,88(sp)
 4004370:	15c00044 	addi	r23,r2,1
 4004374:	400bdbc0 	call	400bdbc <__muldf3>
 4004378:	d9401017 	ldw	r5,64(sp)
 400437c:	d9000f17 	ldw	r4,60(sp)
 4004380:	d8c01515 	stw	r3,84(sp)
 4004384:	d8801415 	stw	r2,80(sp)
 4004388:	400cdd00 	call	400cdd0 <__fixdfsi>
 400438c:	1009883a 	mov	r4,r2
 4004390:	1021883a 	mov	r16,r2
 4004394:	400ce500 	call	400ce50 <__floatsidf>
 4004398:	d9000f17 	ldw	r4,60(sp)
 400439c:	d9401017 	ldw	r5,64(sp)
 40043a0:	100d883a 	mov	r6,r2
 40043a4:	180f883a 	mov	r7,r3
 40043a8:	400c4d40 	call	400c4d4 <__subdf3>
 40043ac:	1829883a 	mov	r20,r3
 40043b0:	d8c00717 	ldw	r3,28(sp)
 40043b4:	84000c04 	addi	r16,r16,48
 40043b8:	1023883a 	mov	r17,r2
 40043bc:	1c000005 	stb	r16,0(r3)
 40043c0:	db001617 	ldw	r12,88(sp)
 40043c4:	00800044 	movi	r2,1
 40043c8:	60802226 	beq	r12,r2,4004454 <_dtoa_r+0x1424>
 40043cc:	d9c00717 	ldw	r7,28(sp)
 40043d0:	8805883a 	mov	r2,r17
 40043d4:	b82b883a 	mov	r21,r23
 40043d8:	3b19883a 	add	r12,r7,r12
 40043dc:	6023883a 	mov	r17,r12
 40043e0:	a007883a 	mov	r3,r20
 40043e4:	dc800f15 	stw	r18,60(sp)
 40043e8:	000d883a 	mov	r6,zero
 40043ec:	01d00934 	movhi	r7,16420
 40043f0:	1009883a 	mov	r4,r2
 40043f4:	180b883a 	mov	r5,r3
 40043f8:	400bdbc0 	call	400bdbc <__muldf3>
 40043fc:	180b883a 	mov	r5,r3
 4004400:	1009883a 	mov	r4,r2
 4004404:	1829883a 	mov	r20,r3
 4004408:	1025883a 	mov	r18,r2
 400440c:	400cdd00 	call	400cdd0 <__fixdfsi>
 4004410:	1009883a 	mov	r4,r2
 4004414:	1021883a 	mov	r16,r2
 4004418:	400ce500 	call	400ce50 <__floatsidf>
 400441c:	100d883a 	mov	r6,r2
 4004420:	180f883a 	mov	r7,r3
 4004424:	9009883a 	mov	r4,r18
 4004428:	a00b883a 	mov	r5,r20
 400442c:	84000c04 	addi	r16,r16,48
 4004430:	400c4d40 	call	400c4d4 <__subdf3>
 4004434:	ad400044 	addi	r21,r21,1
 4004438:	ac3fffc5 	stb	r16,-1(r21)
 400443c:	ac7fea1e 	bne	r21,r17,40043e8 <__ram_exceptions_end+0xfac0025c>
 4004440:	1023883a 	mov	r17,r2
 4004444:	d8801217 	ldw	r2,72(sp)
 4004448:	dc800f17 	ldw	r18,60(sp)
 400444c:	1829883a 	mov	r20,r3
 4004450:	b8af883a 	add	r23,r23,r2
 4004454:	d9001417 	ldw	r4,80(sp)
 4004458:	d9401517 	ldw	r5,84(sp)
 400445c:	000d883a 	mov	r6,zero
 4004460:	01cff834 	movhi	r7,16352
 4004464:	400a9d00 	call	400a9d0 <__adddf3>
 4004468:	880d883a 	mov	r6,r17
 400446c:	a00f883a 	mov	r7,r20
 4004470:	1009883a 	mov	r4,r2
 4004474:	180b883a 	mov	r5,r3
 4004478:	400bcc80 	call	400bcc8 <__ledf2>
 400447c:	10003e0e 	bge	r2,zero,4004578 <_dtoa_r+0x1548>
 4004480:	d9001317 	ldw	r4,76(sp)
 4004484:	bd3fffc3 	ldbu	r20,-1(r23)
 4004488:	d9000515 	stw	r4,20(sp)
 400448c:	003d3b06 	br	400397c <__ram_exceptions_end+0xfabff7f0>
 4004490:	0027883a 	mov	r19,zero
 4004494:	003f1b06 	br	4004104 <__ram_exceptions_end+0xfabfff78>
 4004498:	d8800817 	ldw	r2,32(sp)
 400449c:	11e9c83a 	sub	r20,r2,r7
 40044a0:	0005883a 	mov	r2,zero
 40044a4:	003d5406 	br	40039f8 <__ram_exceptions_end+0xfabff86c>
 40044a8:	00800044 	movi	r2,1
 40044ac:	003dc706 	br	4003bcc <__ram_exceptions_end+0xfabffa40>
 40044b0:	d8c00217 	ldw	r3,8(sp)
 40044b4:	00800d84 	movi	r2,54
 40044b8:	dd400a17 	ldw	r21,40(sp)
 40044bc:	10c5c83a 	sub	r2,r2,r3
 40044c0:	dd000817 	ldw	r20,32(sp)
 40044c4:	003d4c06 	br	40039f8 <__ram_exceptions_end+0xfabff86c>
 40044c8:	dc800f15 	stw	r18,60(sp)
 40044cc:	dcc01015 	stw	r19,64(sp)
 40044d0:	04000084 	movi	r16,2
 40044d4:	003bed06 	br	400348c <__ram_exceptions_end+0xfabff300>
 40044d8:	d9000617 	ldw	r4,24(sp)
 40044dc:	203f0d26 	beq	r4,zero,4004114 <__ram_exceptions_end+0xfabfff88>
 40044e0:	d9800c17 	ldw	r6,48(sp)
 40044e4:	01bcab0e 	bge	zero,r6,4003794 <__ram_exceptions_end+0xfabff608>
 40044e8:	d9401017 	ldw	r5,64(sp)
 40044ec:	d9000f17 	ldw	r4,60(sp)
 40044f0:	000d883a 	mov	r6,zero
 40044f4:	01d00934 	movhi	r7,16420
 40044f8:	400bdbc0 	call	400bdbc <__muldf3>
 40044fc:	81000044 	addi	r4,r16,1
 4004500:	d8800f15 	stw	r2,60(sp)
 4004504:	d8c01015 	stw	r3,64(sp)
 4004508:	400ce500 	call	400ce50 <__floatsidf>
 400450c:	d9800f17 	ldw	r6,60(sp)
 4004510:	d9c01017 	ldw	r7,64(sp)
 4004514:	1009883a 	mov	r4,r2
 4004518:	180b883a 	mov	r5,r3
 400451c:	400bdbc0 	call	400bdbc <__muldf3>
 4004520:	01d00734 	movhi	r7,16412
 4004524:	000d883a 	mov	r6,zero
 4004528:	1009883a 	mov	r4,r2
 400452c:	180b883a 	mov	r5,r3
 4004530:	400a9d00 	call	400a9d0 <__adddf3>
 4004534:	d9c00517 	ldw	r7,20(sp)
 4004538:	047f3034 	movhi	r17,64704
 400453c:	1021883a 	mov	r16,r2
 4004540:	39ffffc4 	addi	r7,r7,-1
 4004544:	d9c01315 	stw	r7,76(sp)
 4004548:	1c63883a 	add	r17,r3,r17
 400454c:	db000c17 	ldw	r12,48(sp)
 4004550:	003bea06 	br	40034fc <__ram_exceptions_end+0xfabff370>
 4004554:	dc000915 	stw	r16,36(sp)
 4004558:	003e0e06 	br	4003d94 <__ram_exceptions_end+0xfabffc08>
 400455c:	01000e44 	movi	r4,57
 4004560:	8825883a 	mov	r18,r17
 4004564:	9dc00044 	addi	r23,r19,1
 4004568:	99000005 	stb	r4,0(r19)
 400456c:	a023883a 	mov	r17,r20
 4004570:	dc000915 	stw	r16,36(sp)
 4004574:	003da406 	br	4003c08 <__ram_exceptions_end+0xfabffa7c>
 4004578:	d9801417 	ldw	r6,80(sp)
 400457c:	d9c01517 	ldw	r7,84(sp)
 4004580:	0009883a 	mov	r4,zero
 4004584:	014ff834 	movhi	r5,16352
 4004588:	400c4d40 	call	400c4d4 <__subdf3>
 400458c:	880d883a 	mov	r6,r17
 4004590:	a00f883a 	mov	r7,r20
 4004594:	1009883a 	mov	r4,r2
 4004598:	180b883a 	mov	r5,r3
 400459c:	400bbec0 	call	400bbec <__gedf2>
 40045a0:	00bc7c0e 	bge	zero,r2,4003794 <__ram_exceptions_end+0xfabff608>
 40045a4:	01000c04 	movi	r4,48
 40045a8:	00000106 	br	40045b0 <_dtoa_r+0x1580>
 40045ac:	102f883a 	mov	r23,r2
 40045b0:	b8bfffc4 	addi	r2,r23,-1
 40045b4:	10c00007 	ldb	r3,0(r2)
 40045b8:	193ffc26 	beq	r3,r4,40045ac <__ram_exceptions_end+0xfac00420>
 40045bc:	d9801317 	ldw	r6,76(sp)
 40045c0:	d9800515 	stw	r6,20(sp)
 40045c4:	003c4406 	br	40036d8 <__ram_exceptions_end+0xfabff54c>
 40045c8:	d9801317 	ldw	r6,76(sp)
 40045cc:	d9800515 	stw	r6,20(sp)
 40045d0:	003cea06 	br	400397c <__ram_exceptions_end+0xfabff7f0>
 40045d4:	dd800f17 	ldw	r22,60(sp)
 40045d8:	dcc01017 	ldw	r19,64(sp)
 40045dc:	dc801217 	ldw	r18,72(sp)
 40045e0:	003c6c06 	br	4003794 <__ram_exceptions_end+0xfabff608>
 40045e4:	903e031e 	bne	r18,zero,4003df4 <__ram_exceptions_end+0xfabffc68>
 40045e8:	003ebb06 	br	40040d8 <__ram_exceptions_end+0xfabfff4c>
 40045ec:	103e6c1e 	bne	r2,zero,4003fa0 <__ram_exceptions_end+0xfabffe14>
 40045f0:	4080004c 	andi	r2,r8,1
 40045f4:	103e6a26 	beq	r2,zero,4003fa0 <__ram_exceptions_end+0xfabffe14>
 40045f8:	003e6606 	br	4003f94 <__ram_exceptions_end+0xfabffe08>
 40045fc:	d8c00317 	ldw	r3,12(sp)
 4004600:	00800084 	movi	r2,2
 4004604:	10c02916 	blt	r2,r3,40046ac <_dtoa_r+0x167c>
 4004608:	d9000c17 	ldw	r4,48(sp)
 400460c:	003e8806 	br	4004030 <__ram_exceptions_end+0xfabffea4>
 4004610:	04000084 	movi	r16,2
 4004614:	003b9d06 	br	400348c <__ram_exceptions_end+0xfabff300>
 4004618:	d9001317 	ldw	r4,76(sp)
 400461c:	d9000515 	stw	r4,20(sp)
 4004620:	003cd606 	br	400397c <__ram_exceptions_end+0xfabff7f0>
 4004624:	d8801317 	ldw	r2,76(sp)
 4004628:	d8800515 	stw	r2,20(sp)
 400462c:	003c2a06 	br	40036d8 <__ram_exceptions_end+0xfabff54c>
 4004630:	d9800317 	ldw	r6,12(sp)
 4004634:	00800084 	movi	r2,2
 4004638:	11801516 	blt	r2,r6,4004690 <_dtoa_r+0x1660>
 400463c:	d9c00c17 	ldw	r7,48(sp)
 4004640:	d9c00615 	stw	r7,24(sp)
 4004644:	003df706 	br	4003e24 <__ram_exceptions_end+0xfabffc98>
 4004648:	193d3926 	beq	r3,r4,4003b30 <__ram_exceptions_end+0xfabff9a4>
 400464c:	00c00f04 	movi	r3,60
 4004650:	1885c83a 	sub	r2,r3,r2
 4004654:	003ddf06 	br	4003dd4 <__ram_exceptions_end+0xfabffc48>
 4004658:	e009883a 	mov	r4,fp
 400465c:	e0001115 	stw	zero,68(fp)
 4004660:	000b883a 	mov	r5,zero
 4004664:	40060b40 	call	40060b4 <_Balloc>
 4004668:	d8800715 	stw	r2,28(sp)
 400466c:	d8c00717 	ldw	r3,28(sp)
 4004670:	00bfffc4 	movi	r2,-1
 4004674:	01000044 	movi	r4,1
 4004678:	d8800c15 	stw	r2,48(sp)
 400467c:	e0c01015 	stw	r3,64(fp)
 4004680:	d9000b15 	stw	r4,44(sp)
 4004684:	d8800615 	stw	r2,24(sp)
 4004688:	d8002215 	stw	zero,136(sp)
 400468c:	003c4106 	br	4003794 <__ram_exceptions_end+0xfabff608>
 4004690:	d8c00c17 	ldw	r3,48(sp)
 4004694:	d8c00615 	stw	r3,24(sp)
 4004698:	003e7006 	br	400405c <__ram_exceptions_end+0xfabffed0>
 400469c:	04400044 	movi	r17,1
 40046a0:	003b2006 	br	4003324 <__ram_exceptions_end+0xfabff198>
 40046a4:	000b883a 	mov	r5,zero
 40046a8:	003b3d06 	br	40033a0 <__ram_exceptions_end+0xfabff214>
 40046ac:	d8800c17 	ldw	r2,48(sp)
 40046b0:	d8800615 	stw	r2,24(sp)
 40046b4:	003e6906 	br	400405c <__ram_exceptions_end+0xfabffed0>

040046b8 <__sflush_r>:
 40046b8:	2880030b 	ldhu	r2,12(r5)
 40046bc:	defffb04 	addi	sp,sp,-20
 40046c0:	dcc00315 	stw	r19,12(sp)
 40046c4:	dc400115 	stw	r17,4(sp)
 40046c8:	dfc00415 	stw	ra,16(sp)
 40046cc:	dc800215 	stw	r18,8(sp)
 40046d0:	dc000015 	stw	r16,0(sp)
 40046d4:	10c0020c 	andi	r3,r2,8
 40046d8:	2823883a 	mov	r17,r5
 40046dc:	2027883a 	mov	r19,r4
 40046e0:	1800311e 	bne	r3,zero,40047a8 <__sflush_r+0xf0>
 40046e4:	28c00117 	ldw	r3,4(r5)
 40046e8:	10820014 	ori	r2,r2,2048
 40046ec:	2880030d 	sth	r2,12(r5)
 40046f0:	00c04b0e 	bge	zero,r3,4004820 <__sflush_r+0x168>
 40046f4:	8a000a17 	ldw	r8,40(r17)
 40046f8:	40002326 	beq	r8,zero,4004788 <__sflush_r+0xd0>
 40046fc:	9c000017 	ldw	r16,0(r19)
 4004700:	10c4000c 	andi	r3,r2,4096
 4004704:	98000015 	stw	zero,0(r19)
 4004708:	18004826 	beq	r3,zero,400482c <__sflush_r+0x174>
 400470c:	89801417 	ldw	r6,80(r17)
 4004710:	10c0010c 	andi	r3,r2,4
 4004714:	18000626 	beq	r3,zero,4004730 <__sflush_r+0x78>
 4004718:	88c00117 	ldw	r3,4(r17)
 400471c:	88800c17 	ldw	r2,48(r17)
 4004720:	30cdc83a 	sub	r6,r6,r3
 4004724:	10000226 	beq	r2,zero,4004730 <__sflush_r+0x78>
 4004728:	88800f17 	ldw	r2,60(r17)
 400472c:	308dc83a 	sub	r6,r6,r2
 4004730:	89400717 	ldw	r5,28(r17)
 4004734:	000f883a 	mov	r7,zero
 4004738:	9809883a 	mov	r4,r19
 400473c:	403ee83a 	callr	r8
 4004740:	00ffffc4 	movi	r3,-1
 4004744:	10c04426 	beq	r2,r3,4004858 <__sflush_r+0x1a0>
 4004748:	88c0030b 	ldhu	r3,12(r17)
 400474c:	89000417 	ldw	r4,16(r17)
 4004750:	88000115 	stw	zero,4(r17)
 4004754:	197dffcc 	andi	r5,r3,63487
 4004758:	8940030d 	sth	r5,12(r17)
 400475c:	89000015 	stw	r4,0(r17)
 4004760:	18c4000c 	andi	r3,r3,4096
 4004764:	18002c1e 	bne	r3,zero,4004818 <__sflush_r+0x160>
 4004768:	89400c17 	ldw	r5,48(r17)
 400476c:	9c000015 	stw	r16,0(r19)
 4004770:	28000526 	beq	r5,zero,4004788 <__sflush_r+0xd0>
 4004774:	88801004 	addi	r2,r17,64
 4004778:	28800226 	beq	r5,r2,4004784 <__sflush_r+0xcc>
 400477c:	9809883a 	mov	r4,r19
 4004780:	4004e240 	call	4004e24 <_free_r>
 4004784:	88000c15 	stw	zero,48(r17)
 4004788:	0005883a 	mov	r2,zero
 400478c:	dfc00417 	ldw	ra,16(sp)
 4004790:	dcc00317 	ldw	r19,12(sp)
 4004794:	dc800217 	ldw	r18,8(sp)
 4004798:	dc400117 	ldw	r17,4(sp)
 400479c:	dc000017 	ldw	r16,0(sp)
 40047a0:	dec00504 	addi	sp,sp,20
 40047a4:	f800283a 	ret
 40047a8:	2c800417 	ldw	r18,16(r5)
 40047ac:	903ff626 	beq	r18,zero,4004788 <__ram_exceptions_end+0xfac005fc>
 40047b0:	2c000017 	ldw	r16,0(r5)
 40047b4:	108000cc 	andi	r2,r2,3
 40047b8:	2c800015 	stw	r18,0(r5)
 40047bc:	84a1c83a 	sub	r16,r16,r18
 40047c0:	1000131e 	bne	r2,zero,4004810 <__sflush_r+0x158>
 40047c4:	28800517 	ldw	r2,20(r5)
 40047c8:	88800215 	stw	r2,8(r17)
 40047cc:	04000316 	blt	zero,r16,40047dc <__sflush_r+0x124>
 40047d0:	003fed06 	br	4004788 <__ram_exceptions_end+0xfac005fc>
 40047d4:	90a5883a 	add	r18,r18,r2
 40047d8:	043feb0e 	bge	zero,r16,4004788 <__ram_exceptions_end+0xfac005fc>
 40047dc:	88800917 	ldw	r2,36(r17)
 40047e0:	89400717 	ldw	r5,28(r17)
 40047e4:	800f883a 	mov	r7,r16
 40047e8:	900d883a 	mov	r6,r18
 40047ec:	9809883a 	mov	r4,r19
 40047f0:	103ee83a 	callr	r2
 40047f4:	80a1c83a 	sub	r16,r16,r2
 40047f8:	00bff616 	blt	zero,r2,40047d4 <__ram_exceptions_end+0xfac00648>
 40047fc:	88c0030b 	ldhu	r3,12(r17)
 4004800:	00bfffc4 	movi	r2,-1
 4004804:	18c01014 	ori	r3,r3,64
 4004808:	88c0030d 	sth	r3,12(r17)
 400480c:	003fdf06 	br	400478c <__ram_exceptions_end+0xfac00600>
 4004810:	0005883a 	mov	r2,zero
 4004814:	003fec06 	br	40047c8 <__ram_exceptions_end+0xfac0063c>
 4004818:	88801415 	stw	r2,80(r17)
 400481c:	003fd206 	br	4004768 <__ram_exceptions_end+0xfac005dc>
 4004820:	28c00f17 	ldw	r3,60(r5)
 4004824:	00ffb316 	blt	zero,r3,40046f4 <__ram_exceptions_end+0xfac00568>
 4004828:	003fd706 	br	4004788 <__ram_exceptions_end+0xfac005fc>
 400482c:	89400717 	ldw	r5,28(r17)
 4004830:	000d883a 	mov	r6,zero
 4004834:	01c00044 	movi	r7,1
 4004838:	9809883a 	mov	r4,r19
 400483c:	403ee83a 	callr	r8
 4004840:	100d883a 	mov	r6,r2
 4004844:	00bfffc4 	movi	r2,-1
 4004848:	30801426 	beq	r6,r2,400489c <__sflush_r+0x1e4>
 400484c:	8880030b 	ldhu	r2,12(r17)
 4004850:	8a000a17 	ldw	r8,40(r17)
 4004854:	003fae06 	br	4004710 <__ram_exceptions_end+0xfac00584>
 4004858:	98c00017 	ldw	r3,0(r19)
 400485c:	183fba26 	beq	r3,zero,4004748 <__ram_exceptions_end+0xfac005bc>
 4004860:	01000744 	movi	r4,29
 4004864:	19000626 	beq	r3,r4,4004880 <__sflush_r+0x1c8>
 4004868:	01000584 	movi	r4,22
 400486c:	19000426 	beq	r3,r4,4004880 <__sflush_r+0x1c8>
 4004870:	88c0030b 	ldhu	r3,12(r17)
 4004874:	18c01014 	ori	r3,r3,64
 4004878:	88c0030d 	sth	r3,12(r17)
 400487c:	003fc306 	br	400478c <__ram_exceptions_end+0xfac00600>
 4004880:	8880030b 	ldhu	r2,12(r17)
 4004884:	88c00417 	ldw	r3,16(r17)
 4004888:	88000115 	stw	zero,4(r17)
 400488c:	10bdffcc 	andi	r2,r2,63487
 4004890:	8880030d 	sth	r2,12(r17)
 4004894:	88c00015 	stw	r3,0(r17)
 4004898:	003fb306 	br	4004768 <__ram_exceptions_end+0xfac005dc>
 400489c:	98800017 	ldw	r2,0(r19)
 40048a0:	103fea26 	beq	r2,zero,400484c <__ram_exceptions_end+0xfac006c0>
 40048a4:	00c00744 	movi	r3,29
 40048a8:	10c00226 	beq	r2,r3,40048b4 <__sflush_r+0x1fc>
 40048ac:	00c00584 	movi	r3,22
 40048b0:	10c0031e 	bne	r2,r3,40048c0 <__sflush_r+0x208>
 40048b4:	9c000015 	stw	r16,0(r19)
 40048b8:	0005883a 	mov	r2,zero
 40048bc:	003fb306 	br	400478c <__ram_exceptions_end+0xfac00600>
 40048c0:	88c0030b 	ldhu	r3,12(r17)
 40048c4:	3005883a 	mov	r2,r6
 40048c8:	18c01014 	ori	r3,r3,64
 40048cc:	88c0030d 	sth	r3,12(r17)
 40048d0:	003fae06 	br	400478c <__ram_exceptions_end+0xfac00600>

040048d4 <_fflush_r>:
 40048d4:	defffd04 	addi	sp,sp,-12
 40048d8:	dc000115 	stw	r16,4(sp)
 40048dc:	dfc00215 	stw	ra,8(sp)
 40048e0:	2021883a 	mov	r16,r4
 40048e4:	20000226 	beq	r4,zero,40048f0 <_fflush_r+0x1c>
 40048e8:	20800e17 	ldw	r2,56(r4)
 40048ec:	10000c26 	beq	r2,zero,4004920 <_fflush_r+0x4c>
 40048f0:	2880030f 	ldh	r2,12(r5)
 40048f4:	1000051e 	bne	r2,zero,400490c <_fflush_r+0x38>
 40048f8:	0005883a 	mov	r2,zero
 40048fc:	dfc00217 	ldw	ra,8(sp)
 4004900:	dc000117 	ldw	r16,4(sp)
 4004904:	dec00304 	addi	sp,sp,12
 4004908:	f800283a 	ret
 400490c:	8009883a 	mov	r4,r16
 4004910:	dfc00217 	ldw	ra,8(sp)
 4004914:	dc000117 	ldw	r16,4(sp)
 4004918:	dec00304 	addi	sp,sp,12
 400491c:	40046b81 	jmpi	40046b8 <__sflush_r>
 4004920:	d9400015 	stw	r5,0(sp)
 4004924:	4004cb00 	call	4004cb0 <__sinit>
 4004928:	d9400017 	ldw	r5,0(sp)
 400492c:	003ff006 	br	40048f0 <__ram_exceptions_end+0xfac00764>

04004930 <fflush>:
 4004930:	20000526 	beq	r4,zero,4004948 <fflush+0x18>
 4004934:	00810074 	movhi	r2,1025
 4004938:	10826504 	addi	r2,r2,2452
 400493c:	200b883a 	mov	r5,r4
 4004940:	11000017 	ldw	r4,0(r2)
 4004944:	40048d41 	jmpi	40048d4 <_fflush_r>
 4004948:	00810074 	movhi	r2,1025
 400494c:	10826404 	addi	r2,r2,2448
 4004950:	11000017 	ldw	r4,0(r2)
 4004954:	01410034 	movhi	r5,1024
 4004958:	29523504 	addi	r5,r5,18644
 400495c:	40051f81 	jmpi	40051f8 <_fwalk_reent>

04004960 <__fp_unlock>:
 4004960:	0005883a 	mov	r2,zero
 4004964:	f800283a 	ret

04004968 <_cleanup_r>:
 4004968:	01410074 	movhi	r5,1025
 400496c:	2962fa04 	addi	r5,r5,-29720
 4004970:	40051f81 	jmpi	40051f8 <_fwalk_reent>

04004974 <__sinit.part.1>:
 4004974:	defff704 	addi	sp,sp,-36
 4004978:	00c10034 	movhi	r3,1024
 400497c:	dfc00815 	stw	ra,32(sp)
 4004980:	ddc00715 	stw	r23,28(sp)
 4004984:	dd800615 	stw	r22,24(sp)
